(lp0
ccopy_reg
_reconstructor
p1
(crand_orbits
star
p2
c__builtin__
object
p3
Ntp4
Rp5
(dp6
S'tau'
p7
F255684.86428954982
sS'd'
p8
F9.17906012e+17
sS't_exclude'
p9
I0
sS'f_L'
p10
F0.031410517060977056
sS'M'
p11
F6.863593689210478e+30
sS'L'
p12
F4.383004626794041e+28
sS'x_in'
p13
F341316.54366332735
sS'p_'
p14
cnumpy.core.multiarray
scalar
p15
(cnumpy
dtype
p16
(S'f8'
p17
I0
I1
tp18
Rp19
(I3
S'<'
p20
NNNI-1
I-1
I0
tp21
bS'\x87\xf7\x03\xd2\xfa\xeb\xe9?'
p22
tp23
Rp24
sS'planet'
p25
g1
(crand_orbits
orbit
p26
g3
Ntp27
Rp28
(dp29
S'a'
p30
F2359333147877.2793
sS'thetas'
p31
(lp32
F5.653663276937925
aF1.3086767476127419
aF0.5130851351046166
aF0.4615615086403098
aF2.715486035994823
aF2.7366650639281613
aF2.900030584608626
aF1.2921885661178087
aF3.540880232423727
aF1.5011670558947945
asS'a_max'
p33
F2689310052622.0522
sS'e'
p34
F0.10401399604332492
sS'z_'
p35
F1332693971656.808
sS'axes'
p36
(lp37
I0
aI2
aI2
aI1
aI0
aI1
aI1
aI2
aI0
aI1
asg11
F6.863593689210478e+30
sS'a_min'
p38
F1600779793227.4124
sS'r'
p39
F2348128402801.1763
sS'T'
p40
F1063879119.9177508
sS'y_'
p41
F990998926106.6306
sS'x'
p42
F-137680232417.59958
sS'y'
p43
F2344088554138.482
sS'lum_star'
p44
F4.383004626794041e+28
sS'R'
p45
F6371000.0
sS'e_max'
p46
F0.253731343283582
sS'nu'
p47
F1.6294640061973897
sS'x_'
p48
F1659986416331.9866
sbsS'findalbe'
p49
F0.0
sS'tau_exclude'
p50
F1.0
sg42
F0.039907780489865964
sbag1
(g2
g3
Ntp51
Rp52
(dp53
g7
F12888.694750457396
sg8
F5.1796041199999994e+17
sg9
I0
sg10
F0.059140038558754694
sg11
F4.683911806214934e+30
sg12
F1.1507260086460862e+28
sg13
F375885.6034419202
sg14
g15
(g19
S'\x91d\x95y\xfeS\xe8?'
p54
tp55
Rp56
sg25
g1
(g26
g3
Ntp57
Rp58
(dp59
g30
F1304700650567.8645
sg31
(lp60
F2.3970491716635673
aF5.402430361009599
aF5.003048096308185
aF3.455915843866184
aF0.16913612587280874
aF0.25961429377918055
aF3.0798542994002447
aF5.319996200520251
aF4.867960004792728
aF5.608202366933484
asg33
F1377973530396.283
sg34
F0.006714484738487409
sg35
F-1177265786943.8374
sg36
(lp61
I0
aI2
aI1
aI2
aI2
aI1
aI0
aI0
aI0
aI2
asg11
F4.683911806214934e+30
sg38
F820222339521.597
sg39
F1312367750003.2415
sg40
F529597746.1375439
sg41
F-530719073964.0393
sg42
F-1150634971817.218
sg43
F-631148376279.1129
sg44
F1.1507260086460862e+28
sg45
F6371000.0
sg46
F0.2537313432835821
sg47
F3.6433002686822715
sg48
F-233862443908.44632
sbsg49
F0.07607607607607608
sg50
F1.0
sg42
F0.04394970132551682
sbag1
(g2
g3
Ntp62
Rp63
(dp64
g7
F548.1514581481958
sg8
F2.30178568e+17
sg9
I0
sg10
F0.06869278860341527
sg11
F2.741162507757579e+30
sg12
F1.3809308412321253e+27
sg13
F482196.44989956636
sg14
g15
(g19
S'\xb98\xb8e\xc2\xd9\xe0?'
p65
tp66
Rp67
sg25
g1
(g26
g3
Ntp68
Rp69
(dp70
g30
F314471271015.1006
sg31
(lp71
F0.5026076491213641
aF5.907174857806121
aF6.159253521066124
aF5.0014070991512725
aF5.6768635720369485
aF6.150757701045183
aF4.7083853572299885
aF4.694349224955735
aF4.689365029221159
aF3.4578660618851065
asg33
F477354339808.89417
sg34
F0.07000422360946622
sg35
F-42522225881.6667
sg36
(lp72
I1
aI2
aI1
aI0
aI2
aI1
aI2
aI2
aI0
aI1
asg11
F2.741162507757579e+30
sg38
F284139487981.4846
sg39
F323612788388.7651
sg40
F81919678.03026448
sg41
F193875890968.63132
sg42
F-152599543355.8516
sg43
F-285374519143.4183
sg44
F1.3809308412321253e+27
sg45
F6371000.0
sg46
F0.2537313432835821
sg47
F4.221341571714152
sg48
F-255595845067.8327
sbsg49
F0.958958958958959
sg50
F0.26728344522050723
sg42
F0.0563798926036416
sbag1
(g2
g3
Ntp73
Rp74
(dp75
g7
F58467.9904651188
sg8
F8.0155764e+17
sg9
I0
sg10
F0.07301407332433693
sg11
F5.824213417830282e+30
sg12
F2.467015789591182e+28
sg13
F397277.42077414
sg14
g15
(g19
S'Eu!\xb4\x0fK\xe7?'
p76
tp77
Rp78
sg25
g1
(g26
g3
Ntp79
Rp80
(dp81
g30
F1368118689298.2278
sg31
(lp82
F3.047927512549263
aF4.501079322118627
aF3.249330176003706
aF2.0233901689223295
aF0.9176566105097487
aF0.20554475061485739
aF5.785220436101422
aF0.760920200059371
aF4.020195242451517
aF1.020978934343456
asg33
F2017626973206.9705
sg34
F0.08214000267007109
sg35
F-1385682863557.0034
sg36
(lp83
I1
aI2
aI1
aI2
aI1
aI1
aI1
aI0
aI2
aI0
asg11
F5.824213417830282e+30
sg38
F1200968436432.7205
sg39
F1474628408271.0857
sg40
F509977701.8522118
sg41
F-495699494454.3253
sg42
F-1409062389794.809
sg43
F434824245121.931
sg44
F2.467015789591182e+28
sg45
F6371000.0
sg46
F0.2537313432835821
sg47
F2.8422727849239675
sg48
F93241382026.99695
sbsg49
F0.0
sg50
F1.0
sg42
F0.046450898428976366
sbag1
(g2
g3
Ntp84
Rp85
(dp86
g7
F107866.9305253271
sg8
F9.11400724e+17
sg9
I0
sg10
F0.07339741253858588
sg11
F6.890739816787572e+30
sg12
F4.443978294843025e+28
sg13
F336564.6458891446
sg14
g15
(g19
S'\x0e\t\x85\x15<\x1a\xea?'
p87
tp88
Rp89
sg25
g1
(g26
g3
Ntp90
Rp91
(dp92
g30
F2283377521698.1787
sg31
(lp93
F3.1921266259098515
aF5.438935214336727
aF4.49434158257182
aF5.821720887019416
aF3.9549863204855678
aF5.537476862557656
aF0.5202999335176832
aF2.1637534064255255
aF2.7377477180879324
aF2.800438730663684
asg33
F2707951459346.657
sg34
F0.11812781490318203
sg35
F-248322815551.64612
sg36
(lp94
I1
aI2
aI0
aI1
aI0
aI0
aI2
aI0
aI0
aI2
asg11
F6.890739816787572e+30
sg38
F1611875868658.7244
sg39
F2537174164496.971
sg40
F1010922401.6187769
sg41
F2386770800308.935
sg42
F-2418222206781.0483
sg43
F-767759141672.6354
sg44
F4.443978294843025e+28
sg45
F6371000.0
sg46
F0.2537313432835821
sg47
F3.449016254957204
sg48
F823962175745.9824
sbsg49
F0.0
sg50
F1.0
sg42
F0.0393521739808846
sbag1
(g2
g3
Ntp95
Rp96
(dp97
g7
F3533.050277296386
sg8
F1.83712666e+17
sg9
I0
sg10
F0.06774770185657943
sg11
F2.1136583182855023e+30
sg12
F4.881709468327845e+26
sg13
F647288.9965004933
sg14
g15
(g19
S'\xe3\r\xe7L^_\xb9?'
p98
tp99
Rp100
sg25
g1
(g26
g3
Ntp101
Rp102
(dp103
g30
F205584196062.57318
sg31
(lp104
F3.0338801430360465
aF2.803532021447343
aF4.2102302652672945
aF2.154377999962508
aF5.159725078921036
aF6.035640193407626
aF6.1228356844726965
aF1.7384951320111914
aF4.6180249883077895
aF1.8436553422295854
asg33
F283818614240.664
sg34
F0.09977854602976509
sg35
F158249453439.58636
sg36
(lp105
I2
aI2
aI0
aI0
aI1
aI1
aI1
aI1
aI1
aI0
asg11
F2.1136583182855023e+30
sg38
F168939651333.72858
sg39
F226047644743.68076
sg40
F49311857.46012839
sg41
F158387236403.1998
sg42
F-225601555969.38324
sg43
F14194211438.419006
sg44
F4.881709468327845e+26
sg45
F6371000.0
sg46
F0.2537313432835821
sg47
F21.928314229225805
sg48
F-31114811983.915184
sbsg49
F0.2972972972972973
sg50
F0.00951931515893297
sg42
F0.07568302112928844
sbag1
(g2
g3
Ntp106
Rp107
(dp108
g7
F665.7950608441442
sg8
F1.12645172e+17
sg9
I0
sg10
F0.07131563828067528
sg11
F1.6437462805727173e+30
sg12
F1.785549642480068e+26
sg13
F656253.612711719
sg14
g15
(g19
S'&\xe54W\x00 \xb5?'
p109
tp110
Rp111
sg25
g1
(g26
g3
Ntp112
Rp113
(dp114
g30
F142431706409.98895
sg31
(lp115
F3.777285537297864
aF2.0124121889967834
aF0.6748301400824507
aF4.17650543843759
aF0.7768379358093485
aF2.6671162275116953
aF2.8434380551691154
aF1.2843172871511483
aF1.1839521307611092
aF5.7528943086281235
asg33
F171648840963.3839
sg34
F0.019190982738664625
sg35
F-61111984424.90381
sg36
(lp116
I1
aI1
aI2
aI1
aI2
aI0
aI0
aI2
aI2
aI1
asg11
F1.6437462805727173e+30
sg38
F102171929144.87138
sg39
F141319297549.87994
sg40
F32246069.73553937
sg41
F-82784238176.39664
sg42
F55231780337.5305
sg43
F130079184732.75531
sg44
F1.785549642480068e+26
sg45
F6371000.0
sg46
F0.25373134328358204
sg47
F32.58519003526355
sg48
F96867120991.56995
sbsg49
F0.36936936936936937
sg50
F1.0
sg42
F0.07673119164013946
sbag1
(g2
g3
Ntp117
Rp118
(dp119
g7
F306520.23445174115
sg8
F5.9922405e+17
sg9
I0
sg10
F0.06412810639882721
sg11
F3.852430239015692e+30
sg12
F5.387309533482637e+27
sg13
F635548.0057332912
sg14
g15
(g19
S'\xfb\xd0y2rV\xbe?'
p120
tp121
Rp122
sg25
g1
(g26
g3
Ntp123
Rp124
(dp125
g30
F750739075468.5798
sg31
(lp126
F1.527115906845555
aF0.4659199837586536
aF5.817521429071841
aF1.522523425712508
aF4.718787872279919
aF4.874943668422368
aF1.5137602869811293
aF5.07746049648101
aF5.052054807862453
aF0.967630035829184
asg33
F942846243862.6002
sg34
F0.061802298465745364
sg35
F252643245021.39508
sg36
(lp127
I1
aI1
aI1
aI1
aI2
aI0
aI2
aI0
aI2
aI0
asg11
F3.852430239015692e+30
sg38
F561218002299.1669
sg39
F734959635803.3944
sg40
F254888536.98896235
sg41
F-536081725905.056
sg42
F208923842598.58063
sg43
F-704639265336.5988
sg44
F5.387309533482637e+27
sg45
F6371000.0
sg46
F0.25373134328358204
sg47
F5.000629463528488
sg48
F-434687750179.33704
sbsg49
F0.0
sg50
F1.0
sg42
F0.07431022836266174
sbag1
(g2
g3
Ntp128
Rp129
(dp130
g7
F22056.261495670402
sg8
F5.5503561600000006e+17
sg9
I0
sg10
F0.04623477050707987
sg11
F4.4320914116005446e+30
sg12
F9.483571636620215e+27
sg13
F443690.3436336016
sg14
g15
(g19
S'\xf4a\xce\x01\x06v\xe4?'
p131
tp132
Rp133
sg25
g1
(g26
g3
Ntp134
Rp135
(dp136
g30
F970136736640.659
sg31
(lp137
F4.995981646692263
aF0.3675248715301405
aF5.2782044185524155
aF3.8077315876832034
aF5.251395425862519
aF1.801050662213376
aF0.5679000205140653
aF4.456615105334004
aF3.2646344723709566
aF0.12564190867431999
asg33
F1250952660935.86
sg34
F0.15034166889541908
sg35
F428060167422.3086
sg36
(lp138
I0
aI1
aI2
aI0
aI0
aI0
aI1
aI2
aI2
aI1
asg11
F4.4320914116005446e+30
sg38
F744614679128.4882
sg39
F926387011764.9647
sg40
F349083430.79289126
sg41
F349800627192.475
sg42
F145150014270.68106
sg43
F-914945008688.5233
sg44
F9.483571636620215e+27
sg45
F6371000.0
sg46
F0.2537313432835821
sg47
F4.869721254515828
sg48
F-743368623126.479
sbsg49
F0.024024024024024024
sg50
F1.0
sg42
F0.05187764017869804
sbag1
(g2
g3
Ntp139
Rp140
(dp141
g7
F13640499.097172042
sg8
F5.50875688e+17
sg9
I0
sg10
F0.07296647183892052
sg11
F3.4708415124760634e+30
sg12
F3.5495388105985147e+27
sg13
F719801.4723475706
sg14
g15
(g19
S'\xd9\xc7\xcf\xba\x96s\x89?'
p142
tp143
Rp144
sg25
g1
(g26
g3
Ntp145
Rp146
(dp147
g30
F670725719082.631
sg31
(lp148
F5.872774787520396
aF0.20151326147322335
aF6.0093801830822935
aF1.3744817641762486
aF2.136715255223136
aF1.9103733152618114
aF2.0456491126096465
aF3.9579177054200216
aF4.5411379116179535
aF0.947975619954492
asg33
F765316145024.4973
sg34
F0.026282123925801777
sg35
F411453829127.901
sg36
(lp149
I2
aI1
aI1
aI1
aI0
aI2
aI1
aI2
aI2
aI0
asg11
F3.4708415124760634e+30
sg38
F455545324419.3437
sg39
F656603431861.4083
sg40
F226769275.4098336
sg41
F-500770503993.47656
sg42
F519706224801.5308
sg43
F-401289803801.0931
sg44
F3.5495388105985147e+27
sg45
F6371000.0
sg46
F0.25373134328358204
sg47
F5.625659888485105
sg48
F105179444561.59944
sbsg49
F0.001001001001001001
sg50
F1.0
sg42
F0.08416140292063902
sbag1
(g2
g3
Ntp150
Rp151
(dp152
g7
F54038.4329187695
sg8
F6.79287234e+17
sg9
I0
sg10
F0.0541878028931145
sg11
F4.693782860830744e+30
sg12
F1.15923618536494e+28
sg13
F491148.2236020565
sg14
g15
(g19
S'\xf1\r\x004\x9eV\xe0?'
p153
tp154
Rp155
sg25
g1
(g26
g3
Ntp156
Rp157
(dp158
g30
F1145443720496.8252
sg31
(lp159
F1.8887317272954336
aF6.111331037752225
aF0.3436929617124514
aF2.8024457369380578
aF5.111628123494087
aF3.865858539925431
aF4.916549791008975
aF5.399825001180115
aF4.358632910063398
aF0.7319665803766707
asg33
F1383059535506.698
sg34
F0.16519878963567114
sg35
F3713201564.7391357
sg36
(lp160
I2
aI1
aI0
aI1
aI0
aI0
aI2
aI1
aI1
aI0
asg11
F4.693782860830744e+30
sg38
F823249723515.8916
sg39
F1101262792986.3218
sg40
F435194402.1487845
sg41
F1100580433811.2627
sg42
F78215071741.43324
sg43
F-1098481743939.5688
sg44
F1.15923618536494e+28
sg45
F6371000.0
sg46
F0.2537313432835821
sg47
F4.783471902982099
sg48
F-38583157750.32822
sbsg49
F0.0
sg50
F1.0
sg42
F0.057426561528855835
sbag1
(g2
g3
Ntp161
Rp162
(dp163
g7
F24118.17874637196
sg8
F6.22680736e+17
sg9
I0
sg10
F0.07232775502581784
sg11
F5.585548818557328e+30
sg12
F2.130943471321829e+28
sg13
F332066.1101382776
sg14
g15
(g19
S'\xd5\x88\xcc\xe5\xffN\xea?'
p164
tp165
Rp166
sg25
g1
(g26
g3
Ntp167
Rp168
(dp169
g30
F1309399563216.959
sg31
(lp170
F1.9183115711928393
aF0.1426267245138105
aF6.095367119587806
aF1.015387041327416
aF0.6384167388927824
aF3.568336485958228
aF1.1215170179206093
aF0.023555748807535404
aF5.941439205631334
aF0.47132045143258056
asg33
F1875170988514.0215
sg34
F0.06521423639535359
sg35
F-145548971292.61053
sg36
(lp171
I0
aI2
aI1
aI2
aI2
aI1
aI1
aI0
aI1
aI0
asg11
F5.585548818557328e+30
sg38
F1116173207448.8225
sg39
F1366065642973.2012
sg40
F487595317.02220774
sg41
F-838961783668.4042
sg42
F-954313416581.0789
sg43
F-977456517623.7426
sg44
F2.130943471321829e+28
sg45
F6371000.0
sg46
F0.25373134328358204
sg47
F3.9389705012713914
sg48
F1068219997664.984
sbsg49
F0.011011011011011011
sg50
F1.0
sg42
F0.03882619133924476
sbag1
(g2
g3
Ntp172
Rp173
(dp174
g7
F1918706.0835474473
sg8
F7.53233966e+17
sg9
I0
sg10
F0.04118222793532244
sg11
F4.2415344119564604e+30
sg12
F8.131523643443931e+27
sg13
F650262.9656885739
sg14
g15
(g19
S"\x86g\xa7\x90'^\xb7?"
p175
tp176
Rp177
sg25
g1
(g26
g3
Ntp178
Rp179
(dp180
g30
F925420234675.1222
sg31
(lp181
F6.2335496232359
aF4.065549571531882
aF0.04827174294067355
aF3.4832103439479503
aF1.0502521475795583
aF1.6609680838502454
aF3.5420862661317827
aF5.623173080314006
aF5.933845374272077
aF5.212829147788152
asg33
F1158352859911.6643
sg34
F0.20804917738507148
sg35
F342584557676.8673
sg36
(lp182
I2
aI2
aI1
aI2
aI1
aI2
aI0
aI2
aI1
aI2
asg11
F4.2415344119564604e+30
sg38
F689495749947.4192
sg39
F865757361636.89
sg40
F332453687.05586046
sg41
F70665668679.31885
sg42
F94240015551.99133
sg43
F-860612937793.3086
sg44
F8.131523643443931e+27
sg45
F6371000.0
sg46
F0.2537313432835821
sg47
F4.821457786481829
sg48
F-791945701004.7588
sbsg49
F0.0
sg50
F1.0
sg42
F0.07603074675743325
sbag1
(g2
g3
Ntp183
Rp184
(dp185
g7
F173687.70705474407
sg8
F8.5084106e+17
sg9
I0
sg10
F0.03406957944805955
sg11
F6.537454949587471e+30
sg12
F3.696340145217052e+28
sg13
F344514.54713240743
sg14
g15
(g19
S'\xcf\x03\xe1\xcd\xc7\xb4\xe9?'
p186
tp187
Rp188
sg25
g1
(g26
g3
Ntp189
Rp190
(dp191
g30
F2032947358622.9497
sg31
(lp192
F0.00781811692667314
aF3.899956973859653
aF3.371074124776415
aF3.293284644576977
aF4.957335193170745
aF3.4501812947333117
aF5.950067455790807
aF5.0068607631771815
aF5.950372939347809
aF3.7831716786032064
asg33
F2469681083373.805
sg34
F0.0038353939521302846
sg35
F-1183338322077.7449
sg36
(lp193
I2
aI0
aI0
aI0
aI2
aI2
aI1
aI1
aI2
aI1
asg11
F6.537454949587471e+30
sg38
F1470048263912.9795
sg39
F2040718867674.696
sg40
F871904681.3097849
sg41
F-1635408600178.9634
sg42
F-2034058119303.4902
sg43
F164745452680.9203
sg44
F3.696340145217052e+28
sg45
F6371000.0
sg46
F0.25373134328358204
sg47
F3.060775580532729
sg48
F-299470570918.7549
sbsg49
F0.0
sg50
F1.0
sg42
F0.040281700895481484
sbag1
(g2
g3
Ntp194
Rp195
(dp196
g7
F289375332911.91
sg8
F4.39350734e+17
sg9
I0
sg10
F0.06625232066110827
sg11
F3.0222805979243137e+30
sg12
F2.0406660020820925e+27
sg13
F757130.0458928257
sg14
g15
(g19
S'KY\x8c\xbe\xb2c\x0c?'
p197
tp198
Rp199
sg25
g1
(g26
g3
Ntp200
Rp201
(dp202
g30
F439105853621.6
sg31
(lp203
F2.858311487485867
aF5.525726448845406
aF6.023916741954069
aF3.0349661234240384
aF6.01646825151357
aF2.8069349278821667
aF3.9251259660639155
aF2.6280614874945716
aF3.306805388135868
aF3.544014701747888
asg33
F580284373052.3297
sg34
F0.0695153706747239
sg35
F-193583231712.39197
sg36
(lp204
I2
aI2
aI1
aI2
aI0
aI1
aI2
aI1
aI0
aI1
asg11
F3.0222805979243137e+30
sg38
F345407364912.101
sg39
F468529345226.40985
sg40
F128727285.91458488
sg41
F421762620800.5024
sg42
F-453790587778.2924
sg43
F-116592666073.47244
sg44
F2.0406660020820925e+27
sg45
F6371000.0
sg46
F0.2537313432835821
sg47
F9.676268784377376
sg48
F-64510242857.75266
sbsg49
F0.0
sg50
F1.0
sg42
F0.08852597459669961
sbag1
(g2
g3
Ntp205
Rp206
(dp207
g7
F51490.48776732238
sg8
F9.9248846e+16
sg9
I0
sg10
F0.07325188282669647
sg11
F1.4633047526005022e+30
sg12
F1.1214293780357381e+26
sg13
F729599.6055450455
sg14
g15
(g19
S'\xa5\x97\xaa3\xe7zz?'
p208
tp209
Rp210
sg25
g1
(g26
g3
Ntp211
Rp212
(dp213
g30
F117279942844.90631
sg31
(lp214
F2.879435589078624
aF5.969708819677401
aF5.2956068016185
aF1.152748139627817
aF4.960832443539886
aF1.4333012005690087
aF3.3247001659736317
aF3.7409365161925687
aF5.813553435346027
aF0.1844024395642693
asg33
F136031934838.91266
sg34
F0.14589067324856297
sg35
F-7435992153.475605
sg36
(lp215
I2
aI0
aI0
aI0
aI2
aI1
aI1
aI2
aI1
aI1
asg11
F1.4633047526005022e+30
sg38
F80971389785.06706
sg39
F134241003938.20778
sg40
F25535971.867750272
sg41
F111539929025.02907
sg42
F-133368757218.19336
sg43
F-15278145712.504326
sg44
F1.1214293780357381e+26
sg45
F6371000.0
sg46
F0.25373134328358204
sg47
F3.2556511157873462
sg48
F-74324944615.67291
sbsg49
F0.07307307307307308
sg50
F1.0
sg42
F0.08530703080218993
sbag1
(g2
g3
Ntp216
Rp217
(dp218
g7
F29292.15099208396
sg8
F2.7899908800000003e+17
sg9
I0
sg10
F0.07341908560934357
sg11
F2.5688265612989153e+30
sg12
F1.0650547389580368e+27
sg13
F665521.2214875461
sg14
g15
(g19
S'\x978|\xef\xd1\xfc\xb2?'
p219
tp220
Rp221
sg25
g1
(g26
g3
Ntp222
Rp223
(dp224
g30
F372169123725.355
sg31
(lp225
F4.028647073717133
aF5.86797534095994
aF4.597147212858878
aF3.0648474252385602
aF0.5855825599715019
aF2.976689944516557
aF1.7588177261159663
aF1.2858077148179667
aF6.09861842010396
aF5.892834240040384
asg33
F419218920437.11633
sg34
F0.04720360458942338
sg35
F-332786918679.3375
sg36
(lp226
I1
aI2
aI0
aI1
aI1
aI1
aI1
aI1
aI1
aI0
asg11
F2.5688265612989153e+30
sg38
F249535071688.7597
sg39
F369982630337.5845
sg40
F108950012.04837666
sg41
F-71930927316.28415
sg42
F28752750874.549946
sg43
F-368863695785.6706
sg44
F1.0650547389580368e+27
sg45
F6371000.0
sg46
F0.25373134328358216
sg47
F11.073366511228285
sg48
F144796254105.03235
sbsg49
F0.055055055055055056
sg50
F1.0
sg42
F0.07781478897392846
sbag1
(g2
g3
Ntp227
Rp228
(dp229
g7
F62434.68985090933
sg8
F6.30568552e+17
sg9
I0
sg10
F0.06425333611202974
sg11
F7.595416020039331e+30
sg12
F6.248444678751114e+28
sg13
F196377.36681697814
sg14
g15
(g19
S'\xe4]\xc1}`\x15\xee?'
p230
tp231
Rp232
sg25
g1
(g26
g3
Ntp233
Rp234
(dp235
g30
F2600270678764.5054
sg31
(lp236
F3.5500357698517857
aF2.436662778890388
aF3.1339157450021617
aF1.8628674433251082
aF0.2666524439572572
aF0.8155467830614439
aF4.636396920697917
aF2.212841468602817
aF5.467900711322108
aF5.883545859679223
asg33
F3211004212046.92
sg34
F0.045985881361483724
sg35
F-740816647182.4155
sg36
(lp237
I1
aI0
aI0
aI0
aI2
aI2
aI2
aI2
aI0
aI2
asg11
F7.595416020039331e+30
sg38
F1911312030980.3098
sg39
F2698361581674.3525
sg40
F1170135672.6111166
sg41
F2511064076200.367
sg42
F-2252641367036.663
sg43
F1485517450914.4302
sg44
F6.248444678751114e+28
sg45
F6371000.0
sg46
F0.25373134328358204
sg47
F2.558598805224022
sg48
F-653378241089.7347
sbsg49
F0.0
sg50
F1.0
sg42
F0.02296104596629283
sbag1
(g2
g3
Ntp238
Rp239
(dp240
g7
F2167.117227292906
sg8
F2.48990824e+17
sg9
I0
sg10
F0.06396257807511915
sg11
F2.6183927097836006e+30
sg12
F1.1496666387573863e+27
sg13
F571666.1368849699
sg14
g15
(g19
S'\x99&\xe2\x0c1V\xd1?'
p241
tp242
Rp243
sg25
g1
(g26
g3
Ntp244
Rp245
(dp246
g30
F331091874077.6183
sg31
(lp247
F4.78259164969386
aF4.033507021031631
aF5.50240286673535
aF0.8851403656558504
aF1.485780384942522
aF4.733937679266733
aF3.1023599591739606
aF1.8927302506182861
aF0.06507689558294118
aF0.9639032761065836
asg33
F435552865448.2847
sg34
F0.09134690173652797
sg35
F187629146948.10776
sg36
(lp248
I2
aI2
aI2
aI0
aI0
aI2
aI1
aI0
aI0
aI0
asg11
F2.6183927097836006e+30
sg38
F259257658004.93137
sg39
F305249396282.4831
sg40
F90550229.60307935
sg41
F-173893862867.84412
sg42
F252660592185.35114
sg43
F171288700991.5368
sg44
F1.1496666387573863e+27
sg45
F6371000.0
sg46
F0.25373134328358216
sg47
F13.162137222854943
sg48
F166533544978.9178
sbsg49
F0.4194194194194194
sg50
F0.0415083449700466
sg42
F0.06684096369731955
sbag1
(g2
g3
Ntp249
Rp250
(dp251
g7
F138922.40706352267
sg8
F8.45480678e+17
sg9
I0
sg10
F0.04596209401316567
sg11
F5.433327106522346e+30
sg12
F1.934514231915125e+28
sg13
F473219.69548490434
sg14
g15
(g19
S'7\x89\xc6\xb69\xca\xe1?'
p252
tp253
Rp254
sg25
g1
(g26
g3
Ntp255
Rp256
(dp257
g30
F1400089627987.6177
sg31
(lp258
F4.2860167553312785
aF2.4157688281557936
aF4.3985166101941
aF0.6607663743754123
aF0.5540287454439254
aF1.6185602359645745
aF0.5584200369003126
aF0.8078639985351806
aF3.7487885752535597
aF1.5488137200279455
asg33
F1786655724744.5989
sg34
F0.11010304720321397
sg35
F1472244637178.0896
sg36
(lp259
I0
aI0
aI1
aI1
aI2
aI1
aI0
aI0
aI0
aI1
asg11
F5.433327106522346e+30
sg38
F1063485550443.2135
sg39
F1550923330939.7039
sg40
F546619342.9621372
sg41
F85260608544.6307
sg42
F-1524086273277.069
sg43
F-287270273543.0888
sg44
F1.934514231915125e+28
sg45
F6371000.0
sg46
F0.25373134328358216
sg47
F3.327893800691085
sg48
F480197392104.6007
sbsg49
F0.0
sg50
F1.0
sg42
F0.05533030285669651
sbag1
(g2
g3
Ntp260
Rp261
(dp262
g7
F18256.455614475282
sg8
F4.04988124e+17
sg9
I0
sg10
F0.07241656741204451
sg11
F7.259294631705685e+30
sg12
F5.333004241674617e+28
sg13
F136521.6136101713
sg14
g15
(g19
S'\xfb\xa8\x81\xe4\xfa\x17\xef?'
p263
tp264
Rp265
sg25
g1
(g26
g3
Ntp266
Rp267
(dp268
g30
F2126179397957.411
sg31
(lp269
F0.16445975799890922
aF3.327456145184418
aF1.7254246305099727
aF0.6259984610077299
aF0.977585712418624
aF3.9625049316365817
aF0.7206333701876627
aF5.192362393484345
aF4.97678317882274
aF3.9306690907893724
asg33
F2966476247170.778
sg34
F0.08364687322767377
sg35
F-1534907117610.4023
sg36
(lp270
I1
aI0
aI1
aI1
aI0
aI1
aI1
aI2
aI2
aI0
asg11
F7.259294631705685e+30
sg38
F1765759670934.9868
sg39
F2228494272872.4043
sg40
F884986836.7879646
sg41
F-139602860735.31348
sg42
F-1401024582635.2344
sg43
F-1733008033183.0183
sg44
F5.333004241674617e+28
sg45
F6371000.0
sg46
F0.2537313432835821
sg47
F4.032525784899535
sg48
F1609583146596.8289
sbsg49
F0.0990990990990991
sg50
F1.0
sg42
F0.015962527129804643
sbag1
(g2
g3
Ntp271
Rp272
(dp273
g7
F105039.17056839536
sg8
F2.7548722e+17
sg9
I0
sg10
F0.0638374520841536
sg11
F2.512087619323102e+30
sg12
F9.740290934781321e+26
sg13
F687164.2882638057
sg14
g15
(g19
S"l'\xc6U\xd2N\xa4?"
p274
tp275
Rp276
sg25
g1
(g26
g3
Ntp277
Rp278
(dp279
g30
F343588238811.8103
sg31
(lp280
F3.2528070974502827
aF3.4231492667059453
aF3.9554837348135528
aF2.068921348379084
aF6.021598462582497
aF3.080598552376975
aF4.571448827304847
aF0.08832429143929675
aF5.365525158079852
aF5.0575218803158535
asg33
F400904448477.74036
sg34
F0.16431216638586865
sg35
F222949343388.91592
sg36
(lp281
I0
aI2
aI1
aI2
aI0
aI2
aI1
aI0
aI0
aI1
asg11
F2.512087619323102e+30
sg38
F238633600284.36926
sg39
F293270346468.8316
sg40
F97729169.17316055
sg41
F-186825545172.80713
sg42
F249777787582.6503
sg43
F-153683287797.5512
sg44
F9.740290934781321e+26
sg45
F6371000.0
sg46
F0.2537313432835821
sg47
F12.014791484262373
sg48
F37380503892.84764
sbsg49
F0.024024024024024024
sg50
F1.0
sg42
F0.08034536293546035
sbag1
(g2
g3
Ntp282
Rp283
(dp284
g7
F2503569.8135986887
sg8
F6.66810536e+17
sg9
I0
sg10
F0.041972614228036845
sg11
F3.943980718929833e+30
sg12
F5.91795868781219e+27
sg13
F674779.030681093
sg14
g15
(g19
S'\x1c\xa0\r\xa8P\x9b\xae?'
p285
tp286
Rp287
sg25
g1
(g26
g3
Ntp288
Rp289
(dp290
g30
F850920158253.3271
sg31
(lp291
F0.5898492892194198
aF4.45682887398284
aF2.3929824147495853
aF4.259751536012154
aF2.508847027582674
aF1.8147798433389382
aF0.8585677525852481
aF1.5920626640755455
aF5.888939716682411
aF2.0475582974230777
asg33
F988190956863.2418
sg34
F0.03010189885878253
sg35
F772704284071.4158
sg36
(lp292
I0
aI1
aI1
aI1
aI2
aI2
aI2
aI0
aI1
aI0
asg11
F3.943980718929833e+30
sg38
F588208902894.7867
sg39
F864119787459.4072
sg40
F303983485.9811619
sg41
F363837588029.0165
sg42
F-464112537121.2108
sg43
F-728905041802.9799
sg44
F5.91795868781219e+27
sg45
F6371000.0
sg46
F0.25373134328358216
sg47
F4.145402136003835
sg48
F-131351840465.97824
sbsg49
F0.0
sg50
F1.0
sg42
F0.07889724051040473
sbag1
(g2
g3
Ntp293
Rp294
(dp295
g7
F182497.88856844255
sg8
F8.24912488e+17
sg9
I0
sg10
F0.07238743574301482
sg11
F4.8982086457493374e+30
sg12
F1.3457733663423252e+28
sg13
F553562.9346182493
sg14
g15
(g19
S'\xfd\x1f\x04\xd8*!\xd4?'
p296
tp297
Rp298
sg25
g1
(g26
g3
Ntp299
Rp300
(dp301
g30
F1030001710900.8268
sg31
(lp302
F1.3257468038114557
aF3.18378095803082
aF4.296081861325056
aF3.360963159077168
aF5.70757948999777
aF3.1437024564757707
aF4.527259964159963
aF4.930360808797193
aF2.1802096707951457
aF1.823299193055871
asg33
F1490187359760.4219
sg34
F0.017877419966172023
sg35
F15742670633.806702
sg36
(lp303
I0
aI1
aI1
aI2
aI0
aI2
aI1
aI0
aI1
aI2
asg11
F4.8982086457493374e+30
sg38
F887016285571.6797
sg39
F1046617630779.0701
sg40
F363264068.9391681
sg41
F750844207037.9911
sg42
F-947849894789.121
sg43
F-443834475909.4838
sg44
F1.3457733663423252e+28
sg45
F6371000.0
sg46
F0.2537313432835821
sg47
F3.579522462567026
sg48
F728967495939.565
sbsg49
F0.0
sg50
F1.0
sg42
F0.06472428158613376
sbag1
(g2
g3
Ntp304
Rp305
(dp306
g7
F15113979.830944203
sg8
F4.59156682e+17
sg9
I0
sg10
F0.056860914914726335
sg11
F3.154530880087327e+30
sg12
F2.4219876768289652e+27
sg13
F726306.6718900066
sg14
g15
(g19
S'\x861\x8e\x7f\xb6\xdb\x82?'
p307
tp308
Rp309
sg25
g1
(g26
g3
Ntp310
Rp311
(dp312
g30
F516053731084.4106
sg31
(lp313
F0.33261991096473703
aF1.1743202869748819
aF0.5507645900130759
aF2.018458887778444
aF3.086022453338741
aF4.722172201657107
aF3.609194897718287
aF1.3748567761780404
aF2.2188949650970433
aF2.0197972901987953
asg33
F632180179214.3464
sg34
F0.15329159396192962
sg35
F320522589103.168
sg36
(lp314
I1
aI0
aI1
aI1
aI0
aI0
aI0
aI1
aI0
aI2
asg11
F3.154530880087327e+30
sg38
F376297725722.8253
sg39
F582867202970.5723
sg40
F160531090.6442317
sg41
F-59171851496.80118
sg42
F-514965379574.2957
sg43
F273028998713.76266
sg44
F2.4219876768289652e+27
sg45
F6371000.0
sg46
F0.25373134328358204
sg47
F8.937271811375965
sg48
F-483216450634.4756
sbsg49
F0.0
sg50
F1.0
sg42
F0.08492201086713924
sbag1
(g2
g3
Ntp315
Rp316
(dp317
g7
F106702.2563369311
sg8
F7.67469684e+17
sg9
I0
sg10
F0.04002208683454352
sg11
F6.479224002553472e+30
sg12
F3.5823822888377536e+28
sg13
F315660.5828376377
sg14
g15
(g19
S'H\xd8?^\xf0\xde\xea?'
p318
tp319
Rp320
sg25
g1
(g26
g3
Ntp321
Rp322
(dp323
g30
F1925208897313.4355
sg31
(lp324
F0.13930772908925082
aF3.400621736998982
aF1.138288210094888
aF1.2027778760049572
aF6.252197816530901
aF1.1741370223107677
aF1.5854110641064574
aF3.059228788406859
aF3.91018020395092
aF0.5071896130938273
asg33
F2431313016977.966
sg34
F0.18589408413408878
sg35
F-791354749167.2277
sg36
(lp325
I0
aI2
aI0
aI0
aI0
aI1
aI1
aI2
aI1
aI0
asg11
F6.479224002553472e+30
sg38
F1447210129153.551
sg39
F1845745332969.7737
sg40
F807122505.2345109
sg41
F-801778171151.4363
sg42
F69581936280.62991
sg43
F1844433297336.3767
sg44
F3.5823822888377536e+28
sg45
F6371000.0
sg46
F0.2537313432835821
sg47
F1.5330888343200018
sg48
F-1462082507731.774
sbsg49
F0.0
sg50
F1.0
sg42
F0.03690800660870841
sbag1
(g2
g3
Ntp326
Rp327
(dp328
g7
F239.19155579906973
sg8
F8.1380906e+16
sg9
I0
sg10
F0.03497548068742016
sg11
F4.329495379926655e+30
sg12
F8.737192999000171e+27
sg13
F67776.89128426448
sg14
g15
(g19
S'N\x9fsF\xe1\xca\xef?'
p329
tp330
Rp331
sg25
g1
(g26
g3
Ntp332
Rp333
(dp334
g30
F983131018658.7705
sg31
(lp335
F0.06717797570624187
aF1.4409837144603195
aF2.993065243753824
aF2.6075610073077007
aF4.789852989789694
aF3.0686447262476757
aF2.5785822852536278
aF1.6649769376478665
aF1.4346971962023343
aF4.5052258200992155
asg33
F1200717596484.0085
sg34
F0.13786830704651679
sg35
F-416824810077.85266
sg36
(lp336
I0
aI0
aI0
aI0
aI1
aI1
aI0
aI2
aI2
aI0
asg11
F4.329495379926655e+30
sg38
F714712855050.0051
sg39
F911773662087.3551
sg40
F360315232.1403886
sg41
F551072509874.8436
sg42
F382033606155.941
sg43
F827877729283.5421
sg44
F8.737192999000171e+27
sg45
F6371000.0
sg46
F0.25373134328358204
sg47
F1.1384520916547776
sg48
F-594901149301.284
sbsg49
F0.8888888888888888
sg50
F0.01629140086087396
sg42
F0.007924682673237078
sbag1
(g2
g3
Ntp337
Rp338
(dp339
g7
F136296.9764575508
sg8
F5.55436796e+17
sg9
I0
sg10
F0.06218008443768243
sg11
F3.769075031744918e+30
sg12
F4.935963381206386e+27
sg13
F615451.4111475651
sg14
g15
(g19
S'\xdd\xaa\xec0$\x7f\xc4?'
p340
tp341
Rp342
sg25
g1
(g26
g3
Ntp343
Rp344
(dp345
g30
F681087179282.2903
sg31
(lp346
F3.815576995269125
aF3.908238334300893
aF2.9696763816782297
aF3.926814311616487
aF5.7550246656111
aF1.8622520964588305
aF5.161442433695739
aF1.980850251097194
aF1.729615361201122
aF5.078851114465181
asg33
F902486834767.8943
sg34
F0.130901247716022
sg35
F-29138502856.170746
sg36
(lp347
I1
aI1
aI1
aI0
aI0
aI1
aI2
aI1
aI2
aI0
asg11
F3.769075031744918e+30
sg38
F537194544504.69904
sg39
F635596090919.4695
sg40
F222674676.7894546
sg41
F-556198146727.211
sg42
F258367029061.22433
sg43
F-580714102709.9196
sg44
F4.935963381206386e+27
sg45
F6371000.0
sg46
F0.25373134328358204
sg47
F5.131004187218385
sg48
F-306230240212.5353
sbsg49
F0.01001001001001001
sg50
F1.0
sg42
F0.071960472688023
sbag1
(g2
g3
Ntp348
Rp349
(dp350
g7
F654712.8126682988
sg8
F9.13557838e+17
sg9
I0
sg10
F0.0501960157786541
sg11
F5.0314646224070084e+30
sg12
F1.4783318344107328e+28
sg13
F584918.2511145083
sg14
g15
(g19
S'\xf1\xd5\xf7\x84\x9a\xa0\xcd?'
p351
tp352
Rp353
sg25
g1
(g26
g3
Ntp354
Rp355
(dp356
g30
F1161789412027.8464
sg31
(lp357
F3.9089854145100316
aF3.476740242644988
aF2.4426477639231043
aF2.658172321680037
aF3.993878354751773
aF1.8093492042953432
aF1.0622367611359649
aF2.5487466025791443
aF4.375007854285077
aF5.817419299873438
asg33
F1561855586245.2559
sg34
F0.10776713793036789
sg35
F771098313830.851
sg36
(lp358
I0
aI1
aI0
aI0
aI2
aI2
aI1
aI1
aI2
aI2
asg11
F5.0314646224070084e+30
sg38
F929675944193.6046
sg39
F1152739596456.287
sg40
F429366417.94468045
sg41
F-390060579562.20483
sg42
F-41227068742.91593
sg43
F-1152002129356.1355
sg44
F1.4783318344107328e+28
sg45
F6371000.0
sg46
F0.25373134328358216
sg47
F4.676616926734693
sg48
F-762934277586.8826
sbsg49
F0.0
sg50
F1.0
sg42
F0.06839044166877327
sbag1
(g2
g3
Ntp359
Rp360
(dp361
g7
F531688.2690198352
sg8
F5.7211662600000006e+17
sg9
I0
sg10
F0.058831813641311334
sg11
F3.695173061177388e+30
sg12
F4.5600744067287894e+27
sg13
F659543.8780233068
sg14
g111
sg25
g1
(g26
g3
Ntp362
Rp363
(dp364
g30
F651753490688.1332
sg31
(lp365
F1.4381387847186757
aF0.8938374028478133
aF6.198044935321558
aF2.6056161067523944
aF0.37447242036020995
aF5.491645760915058
aF0.28410904206651466
aF5.2839776015358515
aF3.284923783607736
aF4.374254232784238
asg33
F867442857198.0206
sg34
F0.03371542861020822
sg35
F-610024478053.5676
sg36
(lp366
I0
aI2
aI2
aI2
aI2
aI0
aI0
aI2
aI1
aI2
asg11
F3.695173061177388e+30
sg38
F516335034046.44086
sg39
F642544312952.8691
sg40
F210519253.5941832
sg41
F22258309321.936943
sg42
F251170169163.0857
sg43
F591419259265.9302
sg44
F4.5600744067287894e+27
sg45
F6371000.0
sg46
F0.2537313432835821
sg47
F7.452373124576266
sg48
F200593863190.46808
sbsg49
F0.0
sg50
F1.0
sg42
F0.07711589958426357
sbag1
(g2
g3
Ntp367
Rp368
(dp369
g7
F21607.10964380544
sg8
F4.81286388e+17
sg9
I0
sg10
F0.03684988922385903
sg11
F5.399120182535634e+30
sg12
F1.892221309785606e+28
sg13
F272372.1529247688
sg14
g15
(g19
S'\\eM\xf0\xca\\\xec?'
p370
tp371
Rp372
sg25
g1
(g26
g3
Ntp373
Rp374
(dp375
g30
F1311629935713.9214
sg31
(lp376
F3.306977267317886
aF3.451056062797972
aF5.614401070671587
aF3.248252042567968
aF3.179329650868471
aF4.848630329586116
aF1.6149115342972684
aF5.378426904025072
aF4.877501885074662
aF0.942254940567284
asg33
F1767017600117.6409
sg34
F0.13068301336466967
sg35
F-115880066338.28403
sg36
(lp377
I1
aI1
aI1
aI0
aI2
aI0
aI0
aI2
aI2
aI2
asg11
F5.399120182535634e+30
sg38
F1051796190546.2148
sg39
F1274389056313.1365
sg40
F497209762.3525076
sg41
F-192708186499.1466
sg42
F113563327157.676
sg43
F-1269319044832.9236
sg44
F1.892221309785606e+28
sg45
F6371000.0
sg46
F0.2537313432835821
sg47
F4.801619318829339
sg48
F-1254393411945.524
sbsg49
F0.02902902902902903
sg50
F1.0
sg42
F0.031846590188126814
sbag1
(g2
g3
Ntp378
Rp379
(dp380
g7
F83.66213680017944
sg8
F1.08448212e+17
sg9
I0
sg10
F0.061675384775832155
sg11
F3.28499553141315e+30
sg12
F2.848209489782667e+27
sg13
F158190.90873550077
sg14
g15
(g19
S'?\x91\x8a\xe4\xf2\xcc\xee?'
p381
tp382
Rp383
sg25
g1
(g26
g3
Ntp384
Rp385
(dp386
g30
F550722985392.5621
sg31
(lp387
F0.5966411118276996
aF2.6844899181509114
aF2.4095819371770153
aF4.77303718252688
aF0.6423364869107558
aF4.213699914654226
aF4.67291661563226
aF1.518048356174809
aF3.3370664793723464
aF2.8679259950630374
asg33
F685552746784.761
sg34
F0.10553547753656992
sg35
F-113339340364.00905
sg36
(lp388
I2
aI2
aI1
aI2
aI1
aI1
aI0
aI2
aI2
aI0
asg11
F3.28499553141315e+30
sg38
F408067111181.4054
sg39
F520294723442.0335
sg40
F173426946.2979792
sg41
F-235758531715.98666
sg42
F230201774190.67224
sg43
F-466598052290.28644
sg44
F2.848209489782667e+27
sg45
F6371000.0
sg46
F0.25373134328358204
sg47
F5.170712146660922
sg48
F449754052667.2276
sbsg49
F1.0
sg50
F0.5892054735033846
sg42
F0.018496167790612396
sbag1
(g2
g3
Ntp389
Rp390
(dp391
g7
F2858.536811375095
sg8
F3.19660224e+17
sg9
I0
sg10
F0.07347918298182263
sg11
F4.7722478923477455e+30
sg12
F1.2284908584089406e+28
sg13
F224516.2212691071
sg14
g15
(g19
S']*t[d\x8d\xed?'
p392
tp393
Rp394
sg25
g1
(g26
g3
Ntp395
Rp396
(dp397
g30
F1126686445889.6306
sg31
(lp398
F3.913688483548827
aF0.023367275831278844
aF6.223591285444477
aF6.279557395331
aF0.10135382397288237
aF2.126750424557053
aF6.282065423919012
aF0.42846509804876876
aF4.27553881843795
aF1.6164829698197938
asg33
F1423773401285.1238
sg34
F0.0204685620586652
sg35
F-746871014317.5524
sg36
(lp399
I1
aI1
aI1
aI2
aI0
aI0
aI0
aI1
aI2
aI2
asg11
F4.7722478923477455e+30
sg38
F847484167431.6212
sg39
F1133838590576.2302
sg40
F421043795.0743917
sg41
F803674182892.2418
sg42
F-372482615456.2757
sg43
F-1070909263505.8977
sg44
F1.2284908584089406e+28
sg45
F6371000.0
sg46
F0.2537313432835821
sg47
F4.377658443237256
sg48
F286149340737.75146
sbsg49
F0.5685685685685685
sg50
F0.2876493993602005
sg42
F0.02625112740992637
sbag1
(g2
g3
Ntp400
Rp401
(dp402
g7
F27632.775817039546
sg8
F6.01208348e+17
sg9
I0
sg10
F0.06285031287179442
sg11
F4.412308318275777e+30
sg12
F9.336238319507678e+27
sg13
F484377.6847832377
sg14
g67
sg25
g1
(g26
g3
Ntp403
Rp404
(dp405
g30
F1064429146453.813
sg31
(lp406
F1.2132500660937424
aF1.0810972924491762
aF5.5391055753332905
aF5.5410969596075645
aF6.135551621018585
aF5.262448213332473
aF1.5493636608680208
aF2.2464925440835133
aF3.9801766949236854
aF1.7670067365615727
asg33
F1241197451672.541
sg34
F0.02534706811478115
sg35
F351637528902.8572
sg36
(lp407
I2
aI0
aI0
aI1
aI0
aI2
aI2
aI1
aI1
aI2
asg11
F4.412308318275777e+30
sg38
F738808006947.9412
sg39
F1080129888841.1095
sg40
F402092872.9250109
sg41
F1001698760890.3895
sg42
F-646410473103.4246
sg43
F-865351996028.272
sg44
F9.336238319507678e+27
sg45
F6371000.0
sg46
F0.25373134328358204
sg47
F4.070816177109585
sg48
F199075908802.7919
sbsg49
F0.018018018018018018
sg50
F1.0
sg42
F0.05663492929773241
sbag1
(g2
g3
Ntp408
Rp409
(dp410
g7
F109252.39301889764
sg8
F7.6216485e+17
sg9
I0
sg10
F0.037519732344603665
sg11
F6.402950401092207e+30
sg12
F3.4369398302424345e+28
sg13
F320042.78471158014
sg14
g15
(g19
S'\xe0\xb9\xa1\x82\xae\xad\xea?'
p411
tp412
Rp413
sg25
g1
(g26
g3
Ntp414
Rp415
(dp416
g30
F1782680589146.9668
sg31
(lp417
F1.5459631831687501
aF3.2155472522479864
aF4.929286963805009
aF4.389036302229639
aF5.388397658160659
aF4.279821679462336
aF5.371571122190261
aF5.856957835003702
aF0.6314246059555557
aF2.964743220786845
asg33
F2381446751523.7275
sg34
F0.01786330425352938
sg35
F-1251071157176.7378
sg36
(lp418
I1
aI1
aI1
aI2
aI2
aI1
aI0
aI2
aI0
aI0
asg11
F6.402950401092207e+30
sg38
F1417527828287.9329
sg39
F1783899069336.1992
sg40
F723443133.5586528
sg41
F1189026714820.9014
sg42
F-100055920824.79459
sg43
F1781090874235.9163
sg44
F3.4369398302424345e+28
sg45
F6371000.0
sg46
F0.25373134328358216
sg47
F1.626914107196509
sg48
F-450923852442.1068
sbsg49
F0.0
sg50
F1.0
sg42
F0.037420387135507834
sbag1
(g2
g3
Ntp419
Rp420
(dp421
g7
F22900.617789022344
sg8
F4.47766256e+17
sg9
I0
sg10
F0.05006806473932609
sg11
F3.568081643039333e+30
sg12
F3.964349444128206e+27
sg13
F553618.3625386171
sg14
g298
sg25
g1
(g26
g3
Ntp422
Rp423
(dp424
g30
F587609644316.1194
sg31
(lp425
F0.21270253458580735
aF2.461167070361252
aF0.20299886464175845
aF2.118806483442513
aF0.4219580335157406
aF2.8803493498340256
aF0.010959131832793765
aF2.141116549436463
aF1.51857523201192
aF4.431856252173976
asg33
F808799502145.7882
sg34
F0.16110194236217626
sg35
F46011794409.52367
sg36
(lp426
I2
aI1
aI1
aI1
aI2
aI2
aI2
aI0
aI1
aI0
asg11
F3.568081643039333e+30
sg38
F481428275086.77875
sg39
F511455097154.1722
sg40
F183400343.81460157
sg41
F-66869491474.48895
sg42
F378045242822.95056
sg43
F344482380948.4602
sg44
F3.964349444128206e+27
sg45
F6371000.0
sg46
F0.25373134328358204
sg47
F7.022164826572808
sg48
F-504972971841.2093
sbsg49
F0.05105105105105105
sg50
F1.0
sg42
F0.06473076238913061
sbag1
(g2
g3
Ntp427
Rp428
(dp429
g7
F2232267.083829139
sg8
F5.80621642e+17
sg9
I0
sg10
F0.05867649984125
sg11
F3.637766197469425e+30
sg12
F4.2832352609246687e+27
sg13
F690640.9803376494
sg14
g276
sg25
g1
(g26
g3
Ntp430
Rp431
(dp432
g30
F751935161956.0938
sg31
(lp433
F0.18953612606382356
aF0.5590558828465391
aF1.528890484362295
aF0.37621427988390416
aF1.7405451230027214
aF0.9235449140787734
aF1.4905925732643466
aF5.313019208623076
aF3.9417390051262005
aF4.603668386463444
asg33
F840699666730.0835
sg34
F0.07909517561879768
sg35
F-345508183073.0334
sg36
(lp434
I0
aI1
aI2
aI1
aI0
aI0
aI2
aI0
aI1
aI0
asg11
F3.637766197469425e+30
sg38
F500416468291.71643
sg39
F777187329765.3403
sg40
F262928318.1334176
sg41
F92841364352.52428
sg42
F-378737503814.6861
sg43
F-678659007714.4784
sg44
F4.2832352609246687e+27
sg45
F6371000.0
sg46
F0.25373134328358204
sg47
F4.203373054312249
sg48
F689945448599.0272
sbsg49
F0.0
sg50
F1.0
sg42
F0.08075186847024823
sbag1
(g2
g3
Ntp435
Rp436
(dp437
g7
F22526053.678089373
sg8
F7.34937072e+17
sg9
I0
sg10
F0.058100197233947264
sg11
F3.9882294645129594e+30
sg12
F6.554988424525585e+27
sg13
F706657.9993760808
sg14
g15
(g19
S'\x18\xb2\x98g\xb1\x1e\x94?'
p438
tp439
Rp440
sg25
g1
(g26
g3
Ntp441
Rp442
(dp443
g30
F814408972822.8177
sg31
(lp444
F6.222026176900499
aF4.892402269088411
aF3.963836987194468
aF5.593898777092424
aF4.478789920624949
aF2.260388905235793
aF0.7232507415423984
aF4.753919522644487
aF0.14337995973644563
aF1.682628281986803
asg33
F1040018046422.5796
sg34
F0.1623089125619163
sg35
F312695302424.1918
sg36
(lp445
I0
aI2
aI0
aI2
aI2
aI0
aI1
aI2
aI0
aI0
asg11
F3.9882294645129594e+30
sg38
F619058360965.8212
sg39
F684584455872.723
sg40
F283046585.5817191
sg41
F587647425518.6072
sg42
F667674843874.2999
sg43
F-151215674055.2428
sg44
F6.554988424525585e+27
sg45
F6371000.0
sg46
F0.2537313432835821
sg47
F6.060461664567853
sg48
F-159837506067.0947
sbsg49
F0.0
sg50
F1.0
sg42
F0.08262462761935714
sbag1
(g2
g3
Ntp446
Rp447
(dp448
g7
F15598.752581072617
sg8
F4.15958854e+17
sg9
I0
sg10
F0.06358468289141354
sg11
F3.3996545024110855e+30
sg12
F3.267171478136663e+27
sg13
F566512.5010799121
sg14
g15
(g19
S'~\x16\xdc\x9e\x92@\xd2?'
p449
tp450
Rp451
sg25
g1
(g26
g3
Ntp452
Rp453
(dp454
g30
F544807082891.8533
sg31
(lp455
F5.429431779892187
aF0.5096387043686748
aF2.8323375102426676
aF4.364362511358986
aF0.2933809875554744
aF4.060189952846392
aF1.9763056068133802
aF1.8058671955911925
aF0.19175152543575788
aF5.699051998240935
asg33
F734244792845.8422
sg34
F0.026930642834601958
sg35
F-91307776483.57697
sg36
(lp456
I2
aI0
aI2
aI0
aI2
aI1
aI0
aI2
aI1
aI1
asg11
F3.3996545024110855e+30
sg38
F437050471932.04895
sg39
F539294702271.3339
sg40
F167737779.8162809
sg41
F243751013034.74347
sg42
F190016039595.4268
sg43
F504710491860.825
sg44
F3.267171478136663e+27
sg45
F6371000.0
sg46
F0.25373134328358204
sg47
F7.493909490934834
sg48
F-472320981426.91925
sbsg49
F0.08408408408408409
sg50
F1.0
sg42
F0.06623838474165125
sbag1
(g2
g3
Ntp457
Rp458
(dp459
g7
F198250.2020065562
sg8
F7.50305352e+17
sg9
I0
sg10
F0.02766761455390936
sg11
F7.372881953929308e+30
sg12
F5.6308236899788255e+28
sg13
F246148.4861103831
sg14
g15
(g19
S'd\xe2zwy\x0f\xed?'
p460
tp461
Rp462
sg25
g1
(g26
g3
Ntp463
Rp464
(dp465
g30
F2677759900494.102
sg31
(lp466
F0.9863655738287687
aF2.3137388875622706
aF2.8065169400243133
aF4.318194459168266
aF2.923444809584154
aF3.085306056029969
aF4.261041348370348
aF2.1412754752882415
aF5.05581710338543
aF5.5489737665574985
asg33
F3048181867198.3716
sg34
F0.04208101658660418
sg35
F101860366527.307
sg36
(lp467
I0
aI1
aI1
aI2
aI0
aI0
aI1
aI1
aI2
aI0
asg11
F7.372881953929308e+30
sg38
F1814393968570.4595
sg39
F2728863189376.1816
sg40
F1241146293.321044
sg41
F-1770318707464.7976
sg42
F-1327085290746.644
sg43
F2384436817660.7744
sg44
F5.6308236899788255e+28
sg45
F6371000.0
sg46
F0.25373134328358204
sg47
F2.0786630550452054
sg48
F2074196337395.1462
sbsg49
F0.0
sg50
F1.0
sg42
F0.028780438375983253
sbag1
(g2
g3
Ntp468
Rp469
(dp470
g7
F4597375263376.729
sg8
F8.97615562e+17
sg9
I0
sg10
F0.0733011321712176
sg11
F4.309036151281365e+30
sg12
F8.59353656297639e+27
sg13
F753788.4837795339
sg14
g199
sg25
g1
(g26
g3
Ntp471
Rp472
(dp473
g30
F1010614857194.4385
sg31
(lp474
F1.783420004541115
aF0.06672043737656046
aF5.002145321901887
aF5.062321532644565
aF3.7896781547043625
aF3.756215196846963
aF5.853883433995152
aF2.0777135633499597
aF0.6003912668264346
aF2.112027646700517
asg33
F1190805618970.603
sg34
F0.0888291279127041
sg35
F489942577145.43994
sg36
(lp475
I2
aI1
aI2
aI1
aI1
aI1
aI0
aI0
aI2
aI0
asg11
F4.309036151281365e+30
sg38
F708812868434.8827
sg39
F1067528133750.482
sg40
F376419933.2347202
sg41
F901533050008.912
sg42
F-730477150760.3389
sg43
F-778472509833.099
sg44
F8.59353656297639e+27
sg45
F6371000.0
sg46
F0.2537313432835821
sg47
F3.9587872278361815
sg48
F-294636635859.325
sbsg49
F0.0
sg50
F1.0
sg42
F0.08813526887268396
sbag1
(g2
g3
Ntp476
Rp477
(dp478
g7
F77115530242.15361
sg8
F8.9892094e+17
sg9
I0
sg10
F0.07349342962721664
sg11
F4.324940506047944e+30
sg12
F8.705063212029488e+27
sg13
F750033.431886809
sg14
g15
(g19
S'\x0e\x1f\xde\xac\xc9\x94;?'
p479
tp480
Rp481
sg25
g1
(g26
g3
Ntp482
Rp483
(dp484
g30
F1175820851911.1807
sg31
(lp485
F3.7664985725990188
aF1.4861565399533796
aF6.18792308617267
aF3.363942564131686
aF4.566662126601486
aF4.830208163570441
aF3.63709506273081
aF5.984301363885587
aF4.799680179278145
aF4.521398018161762
asg33
F1198507828829.236
sg34
F0.013172667200319023
sg35
F129496784477.52591
sg36
(lp486
I2
aI0
aI0
aI1
aI0
aI0
aI1
aI0
aI1
aI0
asg11
F4.324940506047944e+30
sg38
F713397517160.2595
sg39
F1190962013772.1223
sg40
F471526203.2309654
sg41
F897439828952.2449
sg42
F-1164926516057.4478
sg43
F247662533368.3031
sg44
F8.705063212029488e+27
sg45
F6371000.0
sg46
F0.2537313432835821
sg47
F2.932112276241895
sg48
F772154682993.1781
sbsg49
F0.0
sg50
F1.0
sg42
F0.08769621665138073
sbag1
(g2
g3
Ntp487
Rp488
(dp489
g7
F91862.01143585582
sg8
F7.54523914e+17
sg9
I0
sg10
F0.03677528932328323
sg11
F5.714900969127379e+30
sg12
F2.3087235294970054e+28
sg13
F386573.5483168722
sg14
g15
(g19
S'9z\x8c\xa5!\xd8\xe7?'
p490
tp491
Rp492
sg25
g1
(g26
g3
Ntp493
Rp494
(dp495
g30
F1345743149152.2935
sg31
(lp496
F6.258958982523128
aF0.330792896436643
aF4.446937359813146
aF2.7923209826420075
aF3.6100869554303885
aF1.471446899624617
aF3.711476828360718
aF4.868773155285035
aF0.03991951234639267
aF5.862596100351824
asg33
F1951824994972.2917
sg34
F0.11006893929982514
sg35
F-1354929821460.4004
sg36
(lp497
I1
aI1
aI0
aI0
aI2
aI0
aI2
aI1
aI2
aI1
asg11
F5.714900969127379e+30
sg38
F1161800592245.4119
sg39
F1491190777168.4773
sg40
F502253620.63782924
sg41
F-344410790438.6168
sg42
F-1469547521358.7102
sg43
F253140309671.92612
sg44
F2.3087235294970054e+28
sg45
F6371000.0
sg46
F0.25373134328358204
sg47
F2.971009407343238
sg48
F-518841324741.0637
sbsg49
F0.0
sg50
F1.0
sg42
F0.04519936872628044
sbag1
(g2
g3
Ntp498
Rp499
(dp500
g7
F22384.496949877666
sg8
F5.52847642e+17
sg9
I0
sg10
F0.04367507053828286
sg11
F4.5156782989890195e+30
sg12
F1.012446140359849e+28
sg13
F427724.95208900503
sg14
g15
(g19
S'w9\xdc\x08\xb1\x81\xe5?'
p501
tp502
Rp503
sg25
g1
(g26
g3
Ntp504
Rp505
(dp506
g30
F935026401108.8406
sg31
(lp507
F2.4271552352736143
aF0.3459572009859867
aF2.8488891386453914
aF6.07825560513461
aF2.0481608316434596
aF0.6652490360256735
aF0.803440516914173
aF2.041778071633907
aF2.9945870976350846
aF1.154362669561721
asg33
F1292530724008.2598
sg34
F0.09392731805663855
sg35
F-1919060415.2301636
sg36
(lp508
I0
aI1
aI2
aI0
aI2
aI1
aI2
aI0
aI2
aI2
asg11
F4.5156782989890195e+30
sg38
F769363526195.3928
sg39
F853317791930.8026
sg40
F327234042.43249947
sg41
F-771549959482.0121
sg42
F782088628431.4746
sg43
F-341304308944.1378
sg44
F1.012446140359849e+28
sg45
F6371000.0
sg46
F0.25373134328358204
sg47
F5.871697624013198
sg48
F364497230793.4441
sbsg49
F0.018018018018018018
sg50
F1.0
sg42
F0.05001091747502213
sbag1
(g2
g3
Ntp509
Rp510
(dp511
g7
F3557.0336025212305
sg8
F3.39456914e+17
sg9
I0
sg10
F0.04096562693886954
sg11
F3.893451625366854e+30
sg12
F5.620460876860845e+27
sg13
F352487.55108467006
sg14
g15
(g19
S'\xde\x1c \x1d5|\xe9?'
p512
tp513
Rp514
sg25
g1
(g26
g3
Ntp515
Rp516
(dp517
g30
F762552157687.6124
sg31
(lp518
F5.8029654334738625
aF0.39673415558025105
aF4.364437984551009
aF3.473099908626674
aF4.786181117070173
aF3.5163544577365515
aF6.266676618884275
aF2.5222386884260373
aF5.77164741584497
aF2.2911976725585217
asg33
F963032348108.2599
sg34
F0.023870398579872658
sg35
F-484212271420.10474
sg36
(lp519
I1
aI2
aI0
aI1
aI1
aI1
aI2
aI2
aI0
aI0
asg11
F3.893451625366854e+30
sg38
F573233540540.6309
sg39
F774427628620.7258
sg40
F259550042.40095553
sg41
F-291051711515.89734
sg42
F-515700230414.55304
sg43
F-577746851416.3429
sg44
F5.620460876860845e+27
sg45
F6371000.0
sg46
F0.25373134328358216
sg47
F3.983674085896721
sg48
F529684367714.3685
sbsg49
F0.4844844844844845
sg50
F1.0
sg42
F0.041213929049899886
sbag1
(g2
g3
Ntp520
Rp521
(dp522
g7
F230524.91110378035
sg8
F3.3726894e+17
sg9
I0
sg10
F0.06532189087333314
sg11
F2.779295876769918e+30
sg12
F1.4593918920272563e+27
sg13
F687282.7953811913
sg14
g276
sg25
g1
(g26
g3
Ntp523
Rp524
(dp525
g30
F308376418473.7914
sg31
(lp526
F0.6296464099906139
aF2.9955001430280106
aF2.015396255099732
aF2.8259607946862344
aF2.072072107891619
aF4.15520803098669
aF0.7975328714842483
aF1.7450526954426175
aF0.38061360732017774
aF0.6177916018602565
asg33
F490728041304.9461
sg34
F0.04755862553102924
sg35
F-205208824481.51266
sg36
(lp527
I0
aI1
aI1
aI0
aI1
aI1
aI1
aI0
aI2
aI1
asg11
F2.779295876769918e+30
sg38
F292100024586.2774
sg39
F317099105342.45776
sg40
F79002077.68669108
sg41
F-238105965297.17795
sg42
F-198075104084.9468
sg43
F247624909390.64392
sg44
F1.4593918920272563e+27
sg45
F6371000.0
sg46
F0.25373134328358216
sg47
F14.81184675472725
sg48
F-41793902112.65225
sbsg49
F0.013013013013013013
sg50
F1.0
sg42
F0.08035921915226237
sbag1
(g2
g3
Ntp528
Rp529
(dp530
g7
F104552.67110507986
sg8
F7.87044182e+17
sg9
I0
sg10
F0.03759398141234538
sg11
F5.748082527205974e+30
sg12
F2.3559817886573986e+28
sg13
F399170.3157971816
sg14
g78
sg25
g1
(g26
g3
Ntp531
Rp532
(dp533
g30
F1651764810049.6611
sg31
(lp534
F0.4075603206423176
aF2.2816900389039843
aF3.7381864585433515
aF1.8292603381741588
aF3.817280718984715
aF0.8942281782333799
aF1.4255671761561817
aF2.798938456997221
aF0.7500381128607934
aF2.758224731773681
asg33
F1971700176222.2642
sg34
F0.0013444161210697226
sg35
F-1239912232963.8728
sg36
(lp535
I2
aI0
aI1
aI0
aI2
aI1
aI2
aI1
aI0
aI2
asg11
F5.748082527205974e+30
sg38
F1173631057275.1575
sg39
F1653133171296.6272
sg40
F680996658.7667487
sg41
F-500042853236.416
sg42
F-1020031458678.9036
sg43
F-1300917024773.9216
sg44
F2.3559817886573986e+28
sg45
F6371000.0
sg46
F0.253731343283582
sg47
F4.0474270020431025
sg48
F-972329204289.8701
sbsg49
F0.0
sg50
F1.0
sg42
F0.046672221539362777
sbag1
(g2
g3
Ntp536
Rp537
(dp538
g7
F595709.7512766381
sg8
F7.61788358e+17
sg9
I0
sg10
F0.04002208683454352
sg11
F4.4402631498310034e+30
sg12
F9.544912008038493e+27
sg13
F607006.6598714711
sg14
g15
(g19
S'9\xf1OL\x8fN\xc7?'
p539
tp540
Rp541
sg25
g1
(g26
g3
Ntp542
Rp543
(dp544
g30
F949695912863.0026
sg31
(lp545
F5.564500333824519
aF5.864558750205509
aF3.733917621872367
aF0.6188251867513654
aF4.155624811479727
aF1.6341386128293713
aF1.5520871858858325
aF3.2066427975263867
aF5.1263130313819625
aF4.647414731373766
asg33
F1254991762629.594
sg34
F0.041054159945256186
sg35
F154401318796.69162
sg36
(lp546
I0
aI1
aI1
aI2
aI0
aI0
aI2
aI0
aI1
aI0
asg11
F4.4402631498310034e+30
sg38
F747018906327.1393
sg39
F942839127142.93
sg40
F337797680.5462981
sg41
F905644165620.7372
sg42
F128029081646.44955
sg43
F-934106082800.2401
sg44
F9.544912008038493e+27
sg45
F6371000.0
sg46
F0.2537313432835821
sg47
F4.848600809089266
sg48
F211930407687.53174
sbsg49
F0.0
sg50
F1.0
sg42
F0.070973086384972
sbag1
(g2
g3
Ntp547
Rp548
(dp549
g7
F226386.91983663946
sg8
F8.21838832e+17
sg9
I0
sg10
F0.033387957911756215
sg11
F5.125006533682739e+30
sg12
F1.5767830004736996e+28
sg13
F509501.8703709081
sg14
g15
(g19
S'\x87R\x84\xfe\xb5\xb2\xdc?'
p550
tp551
Rp552
sg25
g1
(g26
g3
Ntp553
Rp554
(dp555
g30
F1302835971522.7847
sg31
(lp556
F2.1666698815505887
aF3.7496868167582313
aF1.6484689682713247
aF5.4008732877907235
aF0.09444931627847615
aF2.620297186960084
aF0.40502975144852005
aF3.1852424948773113
aF0.7583575503059976
aF5.873190884075036
asg33
F1613024170846.942
sg34
F0.16485004394463454
sg35
F195737628819.65698
sg36
(lp557
I1
aI2
aI1
aI1
aI1
aI1
aI1
aI0
aI2
aI0
asg11
F5.125006533682739e+30
sg38
F960133435027.9415
sg39
F1405774114978.0393
sg40
F505209564.7363545
sg41
F523213926829.4813
sg42
F-839207605160.5166
sg43
F1127799387206.3596
sg44
F1.5767830004736996e+28
sg45
F6371000.0
sg46
F0.25373134328358216
sg47
F2.2105176243146416
sg48
F-1290013499843.3242
sbsg49
F0.0
sg50
F1.0
sg42
F0.059572526381829256
sbag1
(g2
g3
Ntp558
Rp559
(dp560
g7
F117251.6139412902
sg8
F8.37904548e+17
sg9
I0
sg10
F0.06249697660621031
sg11
F7.392309433909489e+30
sg12
F5.682925060100095e+28
sg13
F273623.6755680442
sg14
g15
(g19
S'\xc1\xc2\xa3\x07\x165\xec?'
p561
tp562
Rp563
sg25
g1
(g26
g3
Ntp564
Rp565
(dp566
g30
F2746756400637.952
sg31
(lp567
F1.4339435521387338
aF1.8389288885410016
aF1.4940545570590864
aF4.222735318986587
aF5.551670109352959
aF2.393460054878682
aF5.568265768322594
aF4.27012790573048
aF3.888610559444974
aF1.4424076368521082
asg33
F3062251635427.766
sg34
F0.042260219025663015
sg35
F2439077929176.5444
sg36
(lp568
I0
aI0
aI2
aI1
aI2
aI1
aI1
aI0
aI1
aI0
asg11
F7.392309433909489e+30
sg38
F1822768830611.7659
sg39
F2846208853719.4
sg40
F1287728516.8255124
sg41
F-118714242571.79602
sg42
F-2469413539895.39
sg43
F1415239063894.1597
sg44
F5.682925060100095e+28
sg45
F6371000.0
sg46
F0.253731343283582
sg47
F2.6211819095183144
sg48
F-1462091181494.9038
sbsg49
F0.0
sg50
F1.0
sg42
F0.031992922066417476
sbag1
(g2
g3
Ntp569
Rp570
(dp571
g7
F3362.5881506680435
sg8
F3.605991e+17
sg9
I0
sg10
F0.05852038745679856
sg11
F3.4949002364776425e+30
sg12
F3.64898374812773e+27
sg13
F464711.86734952946
sg14
g15
(g19
S'\xb4B\xb4\xcaj\xc5\xe2?'
p572
tp573
Rp574
sg25
g1
(g26
g3
Ntp575
Rp576
(dp577
g30
F694308496889.6023
sg31
(lp578
F1.3313431030585707
aF2.839045750161125
aF1.0801909563685022
aF2.2727609277014693
aF0.3000992359539396
aF5.9726980384120605
aF0.03294171190791317
aF3.762228694877167
aF3.3205544255800157
aF5.3500034603956985
asg33
F775962753128.4415
sg34
F0.10680798786676424
sg35
F-470598651208.8247
sg36
(lp579
I1
aI1
aI1
aI1
aI0
aI1
aI1
aI1
aI2
aI1
asg11
F3.4949002364776425e+30
sg38
F461882591147.8819
sg39
F767374429953.2479
sg40
F238010158.18096521
sg41
F317238257855.8843
sg42
F-758244478806.9836
sg43
F-118020447824.93338
sg44
F3.64898374812773e+27
sg45
F6371000.0
sg46
F0.25373134328358204
sg47
F3.2960032481893227
sg48
F516488444187.3513
sbsg49
F0.4014014014014014
sg50
F0.936403830753083
sg42
F0.05433554141317575
sbag1
(g2
g3
Ntp580
Rp581
(dp582
g7
F151701.1174667146
sg8
F7.810666e+17
sg9
I0
sg10
F0.03262870122397756
sg11
F6.789938676638651e+30
sg12
F4.220577983287313e+28
sg13
F295969.6586629701
sg14
g15
(g19
S'\xe2\xa5\xfe\x87%\x92\xeb?'
p583
tp584
Rp585
sg25
g1
(g26
g3
Ntp586
Rp587
(dp588
g30
F2226088051530.839
sg31
(lp589
F5.215024421186459
aF3.866166193003501
aF6.104550996036825
aF1.2427631008937818
aF3.411688266056468
aF3.181496137194431
aF2.9054347954879156
aF1.001761885506042
aF5.257425757726556
aF5.066217940538579
asg33
F2639009023858.844
sg34
F0.10566630216746331
sg35
F-568372388587.8867
sg36
(lp590
I0
aI2
aI1
aI1
aI1
aI2
aI0
aI1
aI2
aI0
asg11
F6.789938676638651e+30
sg38
F1570838704677.8833
sg39
F2200196289294.2534
sg40
F980312964.6116558
sg41
F1242830321730.9468
sg42
F9810802731.146317
sg43
F2200174415716.6206
sg44
F4.220577983287313e+28
sg45
F6371000.0
sg46
F0.25373134328358216
sg47
F1.566337254079038
sg48
F-1724293864369.1958
sbsg49
F0.0
sg50
F1.0
sg42
F0.034605683166747274
sbag1
(g2
g3
Ntp591
Rp592
(dp593
g7
F11415952.438069765
sg8
F8.60089802e+17
sg9
I0
sg10
F0.07181469705386612
sg11
F4.409986708613378e+30
sg12
F9.319056163173748e+27
sg13
F693590.1598438962
sg14
g15
(g19
S'\x8a:\xd8\x9cp\xbc\xa1?'
p594
tp595
Rp596
sg25
g1
(g26
g3
Ntp597
Rp598
(dp599
g30
F1030435975332.5234
sg31
(lp600
F2.2723209616718347
aF3.887680864614157
aF5.522050313047066
aF3.565268216366933
aF2.1604941613813233
aF2.192282448066565
aF4.290227830149556
aF4.365543657404084
aF4.830457886925018
aF3.3511318790971947
asg33
F1240054792867.2708
sg34
F0.025122473606045248
sg35
F-907607527917.5681
sg36
(lp601
I0
aI0
aI1
aI1
aI2
aI0
aI0
aI1
aI2
aI1
asg11
F4.409986708613378e+30
sg38
F738127852897.1852
sg39
F1019056967984.2604
sg40
F383086672.3533918
sg41
F166548092813.63242
sg42
F427054258872.6784
sg43
F-925257674367.5144
sg44
F9.319056163173748e+27
sg45
F6371000.0
sg46
F0.25373134328358193
sg47
F5.144807675198939
sg48
F-432420411225.89984
sbsg49
F0.0
sg50
F1.0
sg42
F0.08109669561251709
sbag1
(g2
g3
Ntp602
Rp603
(dp604
g7
F29536.079764051516
sg8
F5.56137318e+17
sg9
I0
sg10
F0.03936436789265863
sg11
F4.3101702344826654e+30
sg12
F8.601455148734516e+27
sg13
F466811.0877269236
sg14
g15
(g19
S'\x03E\x14\xb9!I\xe2?'
p605
tp606
Rp607
sg25
g1
(g26
g3
Ntp608
Rp609
(dp610
g30
F1159000395202.7334
sg31
(lp611
F1.3856618728309877
aF1.2402585550178578
aF4.912727975113017
aF1.443153413388051
aF2.8330696871894725
aF1.372034883643094
aF4.9555390055146145
aF5.914830872843583
aF1.8569904114085087
aF3.3132765086231055
asg33
F1191354131513.9685
sg34
F0.026700334529471043
sg35
F-989930046399.7181
sg36
(lp612
I1
aI1
aI1
aI0
aI2
aI1
aI0
aI2
aI1
aI1
asg11
F4.3101702344826654e+30
sg38
F709139363996.4099
sg39
F1182931492276.2024
sg40
F462234469.889949
sg41
F-249568588592.987
sg42
F-927230239091.0186
sg43
F-734554966720.6775
sg44
F8.601455148734516e+27
sg45
F6371000.0
sg46
F0.25373134328358204
sg47
F3.8115614704348304
sg48
F597562497352.0002
sbsg49
F0.011011011011011011
sg50
F1.0
sg42
F0.0545809887188403
sbag1
(g2
g3
Ntp613
Rp614
(dp615
g7
F120042.92416596122
sg8
F8.11892654e+17
sg9
I0
sg10
F0.03855579152928135
sg11
F6.135724511751218e+30
sg12
F2.960546788771562e+28
sg13
F367331.13157773693
sg14
g15
(g19
S'EZ\xb1\xd6\x83\xd2\xe8?'
p616
tp617
Rp618
sg25
g1
(g26
g3
Ntp619
Rp620
(dp621
g30
F1761789765422.4634
sg31
(lp622
F1.342945663548645
aF3.631022027536923
aF5.907386159999102
aF3.9862633313522324
aF3.0721583202473832
aF2.145732821954591
aF3.869919686886653
aF0.986720042426287
aF1.7227248988244919
aF1.7393832380312233
asg33
F2210247333278.8623
sg34
F0.001486636363064874
sg35
F-212384260303.89954
sg36
(lp623
I2
aI2
aI2
aI0
aI2
aI0
aI0
aI2
aI1
aI0
asg11
F6.135724511751218e+30
sg38
F1315623412665.9895
sg39
F1764334158498.35
sg40
F726076469.4699637
sg41
F-1132928150929.6475
sg42
F-1714129190598.5842
sg43
F417894892026.60034
sg44
F2.960546788771562e+28
sg45
F6371000.0
sg46
F0.2537313432835821
sg47
F2.902463142156339
sg48
F-1335755124882.6926
sbsg49
F0.0
sg50
F1.0
sg42
F0.04294948615370463
sbag1
(g2
g3
Ntp624
Rp625
(dp626
g7
F566881.2763798807
sg8
F7.00886148e+17
sg9
I0
sg10
F0.04268574995689065
sg11
F4.1674063771197267e+30
sg12
F7.64490211515589e+27
sg13
F624031.6278307772
sg14
g15
(g19
S'\xfd\x06\xf2\xc4\x98\x0c\xc3?'
p627
tp628
Rp629
sg25
g1
(g26
g3
Ntp630
Rp631
(dp632
g30
F786884669346.9246
sg31
(lp633
F0.5453445514868888
aF2.0372030527276146
aF2.8730984371902046
aF0.4482280944134476
aF4.159265184689812
aF3.9871771416303283
aF3.6122533254051037
aF1.9035806471001713
aF4.933650385586804
aF0.921093123430857
asg33
F1123158052799.952
sg34
F0.0432611903365583
sg35
F-381573886442.972
sg36
(lp634
I0
aI2
aI2
aI2
aI2
aI1
aI0
aI0
aI0
aI0
asg11
F4.1674063771197267e+30
sg38
F668546459999.9714
sg39
F757005996519.9766
sg40
F262977059.25513756
sg41
F-260368258338.40427
sg42
F656616100412.3137
sg43
F-376713917245.60583
sg44
F7.64490211515589e+27
sg45
F6371000.0
sg46
F0.25373134328358204
sg47
F5.762313366612904
sg48
F599723117781.7266
sbsg49
F0.0
sg50
F1.0
sg42
F0.07296369802329088
sbag1
(g2
g3
Ntp635
Rp636
(dp637
g7
F2547.6444583090915
sg8
F3.5168056e+17
sg9
I0
sg10
F0.06752190921869344
sg11
F3.4997319564546505e+30
sg12
F3.669204598340652e+27
sg13
F451967.7916834434
sg14
g15
(g19
S'\x0cz\xc9\xda[\xa2\xe3?'
p638
tp639
Rp640
sg25
g1
(g26
g3
Ntp641
Rp642
(dp643
g30
F579426425743.173
sg31
(lp644
F6.015004698978655
aF5.772045428444809
aF5.234098575730485
aF5.059177819672078
aF3.675673023259749
aF1.0802929226927327
aF3.777497595937451
aF0.4840003631987059
aF2.7827179593453226
aF0.25418050182344004
asg33
F778109782314.5677
sg34
F0.11799156579805783
sg35
F-259171963371.644
sg36
(lp645
I2
aI1
aI1
aI1
aI0
aI1
aI2
aI2
aI2
aI1
asg11
F3.4997319564546505e+30
sg38
F463160584711.0522
sg39
F601180305733.6731
sg40
F181327727.9543098
sg41
F-517638797248.1981
sg42
F-252735524358.79562
sg43
F545474577527.78656
sg44
F3.669204598340652e+27
sg45
F6371000.0
sg46
F0.25373134328358216
sg47
F2.004681211881745
sg48
F162165745419.79773
sbsg49
F0.5545545545545546
sg50
F0.08775364356829413
sg42
F0.05284546487375646
sbag1
(g2
g3
Ntp646
Rp647
(dp648
g7
F14911.543614132332
sg8
F5.5653849800000006e+17
sg9
I0
sg10
F0.07342627506631681
sg11
F5.169706076153853e+30
sg12
F1.6254436907864855e+28
sg13
F339824.2259566826
sg14
g24
sg25
g1
(g26
g3
Ntp649
Rp650
(dp651
g30
F1352326637841.1462
sg31
(lp652
F2.8834239665224706
aF3.2956996544216017
aF3.1244616276829342
aF0.2697879556081783
aF1.5169923383322599
aF0.27748552013661143
aF4.229310033574325
aF2.126012534599399
aF6.081921403303739
aF3.326250172263687
asg33
F1637724610225.2346
sg34
F0.10618263579027848
sg35
F-1434095608777.5225
sg36
(lp653
I1
aI0
aI1
aI0
aI2
aI0
aI0
aI2
aI2
aI1
asg11
F5.169706076153853e+30
sg38
F974836077515.0206
sg39
F1491188677511.8074
sg40
F531953465.43370837
sg41
F76744767212.82185
sg42
F-1451359595495.2524
sg43
F342343389746.7132
sg44
F1.6254436907864855e+28
sg45
F6371000.0
sg46
F0.25373134328358204
sg47
F2.909949072902133
sg48
F401402164331.3472
sbsg49
F0.05905905905905906
sg50
F1.0
sg42
F0.03973329411185827
sbag1
(g2
g3
Ntp654
Rp655
(dp656
g7
F11258.038500719673
sg8
F3.4740645e+17
sg9
I0
sg10
F0.07105640600492337
sg11
F6.8816791990318e+30
sg12
F4.423560069279351e+28
sg13
F128586.98163705612
sg14
g15
(g19
S'\x81\xbe\x7fa\xb1:\xef?'
p657
tp658
Rp659
sg25
g1
(g26
g3
Ntp660
Rp661
(dp662
g30
F2270118258922.253
sg31
(lp663
F3.2169074098399304
aF5.7649164241338235
aF0.9082042987932551
aF5.310196990316733
aF0.3280653675967444
aF2.546514553867952
aF0.24584656592400797
aF5.025122240316688
aF0.5433912384421691
aF1.2172583463936442
asg33
F2701723343818.5366
sg34
F0.07393843563329322
sg35
F-1091255138918.5516
sg36
(lp664
I2
aI2
aI1
aI1
aI1
aI2
aI0
aI0
aI1
aI1
asg11
F6.8816791990318e+30
sg38
F1608168657034.8433
sg39
F2322065360893.7114
sg40
F1002789263.1232843
sg41
F1008337331490.8105
sg42
F-870421362963.1705
sg43
F2152755023489.6165
sg44
F4.423560069279351e+28
sg45
F6371000.0
sg46
F0.2537313432835821
sg47
F1.955029051464967
sg48
F-1784490288000.5503
sbsg49
F0.22422422422422422
sg50
F1.0
sg42
F0.015034785545255792
sbag1
(g2
g3
Ntp665
Rp666
(dp667
g7
F208905.2167305113
sg8
F8.21181514e+17
sg9
I0
sg10
F0.04798173199175171
sg11
F4.989273143452493e+30
sg12
F1.4353966525957105e+28
sg13
F533578.4596274665
sg14
g15
(g19
S'\xe0#\xa06\x19\xc2\xd7?'
p668
tp669
Rp670
sg25
g1
(g26
g3
Ntp671
Rp672
(dp673
g30
F1292729418085.4617
sg31
(lp674
F2.3329156469809713
aF6.085810109206462
aF1.2002047397602205
aF2.6547320956495906
aF5.945700999185888
aF4.91741077915075
aF1.2855843649400842
aF1.802043492114793
aF2.760870948147681
aF3.5005053771952146
asg33
F1539007992514.0383
sg34
F0.05790846903384136
sg35
F-95414819385.4779
sg36
(lp675
I0
aI2
aI2
aI2
aI2
aI1
aI1
aI0
aI1
aI1
asg11
F4.989273143452493e+30
sg38
F916076186020.261
sg39
F1358289858664.4685
sg40
F506089086.3656145
sg41
F386576609265.82404
sg42
F-1206999056689.9126
sg43
F-622980430912.8844
sg44
F1.4353966525957105e+28
sg45
F6371000.0
sg46
F0.25373134328358204
sg47
F3.6180686929687824
sg48
F1298616909469.8086
sbsg49
F0.0
sg50
F1.0
sg42
F0.06238763527951916
sbag1
(g2
g3
Ntp676
Rp677
(dp678
g7
F0.665524509189961
sg8
F4.0883328e+16
sg9
I0
sg10
F0.07335634682115126
sg11
F1.62081998554735e+30
sg12
F1.6879980053730406e+26
sg13
F244965.74909137495
sg14
g462
sg25
g1
(g26
g3
Ntp679
Rp680
(dp681
g30
F150131311162.71686
sg31
(lp682
F3.0561250943157825
aF4.816334705282548
aF5.032267630691082
aF5.825275002688546
aF6.003583395252571
aF0.6756392971638391
aF2.4340650320220045
aF5.80183679919164
aF4.877768605636084
aF1.162830837807029
asg33
F166894058257.71207
sg34
F0.0892939903118562
sg35
F-15107853655.05066
sg36
(lp683
I2
aI0
aI1
aI1
aI2
aI2
aI2
aI0
aI1
aI2
asg11
F1.62081998554735e+30
sg38
F99341701343.87622
sg39
F161866931746.84808
sg40
F35141774.61223491
sg41
F-98597363726.1253
sg42
F-144832592243.3842
sg43
F-72280175824.35999
sg44
F1.6879980053730406e+26
sg45
F6371000.0
sg46
F0.25373134328358216
sg47
F3.6044881033611214
sg48
F-127480258147.4265
sbsg49
F1.0
sg50
F0.005524341508785415
sg42
F0.028642149124529993
sbag1
(g2
g3
Ntp684
Rp685
(dp686
g7
F2.0932115631057053
sg8
F4.0883328e+16
sg9
I0
sg10
F0.07097718358498516
sg11
F2.2168422153349586e+30
sg12
F5.9070674393380284e+26
sg13
F130949.9587372301
sg14
g15
(g19
S'\xd8_8\xcb\xb0)\xef?'
p687
tp688
Rp689
sg25
g1
(g26
g3
Ntp690
Rp691
(dp692
g30
F208301507524.70053
sg31
(lp693
F0.13480626230441553
aF5.891846335835207
aF2.910464168130784
aF5.246474655631351
aF0.025211472029825432
aF0.6367981726558639
aF3.0950228215393953
aF4.460341233926363
aF2.933899874888189
aF2.945941267525969
asg33
F312205734115.87146
sg34
F0.09434402275105752
sg35
F-89390758393.29948
sg36
(lp694
I2
aI0
aI0
aI2
aI0
aI2
aI2
aI2
aI2
aI0
asg11
F2.2168422153349586e+30
sg38
F185836746497.54254
sg39
F199382612053.5674
sg40
F49108355.63978881
sg41
F-112249858751.00652
sg42
F74883880565.67451
sg43
F184785904280.41086
sg44
F5.9070674393380284e+26
sg45
F6371000.0
sg46
F0.2537313432835821
sg47
F1.1857751190975334
sg48
F-138429359290.40918
sbsg49
F1.0
sg50
F0.0021829617814819085
sg42
F0.015311072098506904
sbag1
(g2
g3
Ntp695
Rp696
(dp697
g7
F47741.96123261027
sg8
F5.113502e+17
sg9
I0
sg10
F0.0521408713100153
sg11
F3.7612723649899664e+30
sg12
F4.8952167825184187e+27
sg13
F568954.5238157632
sg14
g243
sg25
g1
(g26
g3
Ntp698
Rp699
(dp700
g30
F646723179102.1243
sg31
(lp701
F1.0603315142168173
aF1.5967232741596402
aF0.9932459527062512
aF2.94519394616596
aF0.9453881856882455
aF2.8745022519123564
aF5.305044339374994
aF3.839302742238374
aF6.22334999188054
aF4.646303489173933
asg33
F898754080678.6582
sg34
F0.10169664035132692
sg35
F-351948712067.1471
sg36
(lp702
I0
aI2
aI1
aI1
aI2
aI2
aI1
aI0
aI0
aI0
asg11
F3.7612723649899664e+30
sg38
F534972667070.6299
sg39
F589523770653.8162
sg40
F206250216.36079478
sg41
F68090273931.5578
sg42
F496681734072.378
sg43
F317561854139.8649
sg44
F4.8952167825184187e+27
sg45
F6371000.0
sg46
F0.2537313432835821
sg47
F6.852049225432015
sg48
F468010784957.0296
sbsg49
F0.03003003003003003
sg50
F1.0
sg42
F0.06652391355384309
sbag1
(g2
g3
Ntp703
Rp704
(dp705
g7
F71438.14717685568
sg8
F7.17174056e+17
sg9
I0
sg10
F0.044999844870890204
sg11
F4.984024146070437e+30
sg12
F1.4301181851666862e+28
sg13
F466856.80674660916
sg14
g607
sg25
g1
(g26
g3
Ntp706
Rp707
(dp708
g30
F1471156024620.1895
sg31
(lp709
F4.422529298370945
aF0.40534452358592543
aF0.8675718998972525
aF2.3920091122240374
aF3.7954997104353403
aF0.45072808290680677
aF3.3004058594948926
aF4.617560619661511
aF3.45428493023585
aF0.1065178190883908
asg33
F1536175644514.599
sg34
F0.02885875041703434
sg35
F-395434617429.4212
sg36
(lp710
I2
aI1
aI1
aI0
aI2
aI1
aI2
aI0
aI0
aI1
asg11
F4.984024146070437e+30
sg38
F914390264592.0233
sg39
F1510752060298.2383
sg40
F614726870.9109813
sg41
F-1423168369527.7588
sg42
F-1414519140516.895
sg43
F530572698889.33856
sg44
F1.4301181851666862e+28
sg45
F6371000.0
sg46
F0.25373134328358204
sg47
F2.782742638743779
sg48
F-317167216164.4683
sbsg49
F0.0
sg50
F1.0
sg42
F0.05458633432729584
sbag1
(g2
g3
Ntp711
Rp712
(dp713
g7
F74467.86388985696
sg8
F7.10079342e+17
sg9
I0
sg10
F0.036700655865830795
sg11
F5.698382088676695e+30
sg12
F2.2854510770429264e+28
sg13
F365650.35790518473
sg14
g618
sg25
g1
(g26
g3
Ntp714
Rp715
(dp716
g30
F1706493873301.7085
sg31
(lp717
F5.675647497123689
aF4.660448966169583
aF3.3525736798785375
aF2.916354369138574
aF0.7545380797026199
aF6.155757854690442
aF5.824643561045861
aF5.70139292597654
aF6.096140845159047
aF2.6645909935241114
asg33
F1941962660909.326
sg34
F0.0040855539061997225
sg35
F-566172975365.969
sg36
(lp718
I0
aI0
aI1
aI1
aI0
aI1
aI1
aI2
aI1
aI0
asg11
F5.698382088676695e+30
sg38
F1155930155303.1704
sg39
F1708029100376.8167
sg40
F718233208.2212129
sg41
F-919963872291.3513
sg42
F-382741601591.5036
sg43
F-1664593726452.5564
sg44
F2.2854510770429264e+28
sg45
F6371000.0
sg46
F0.25373134328358204
sg47
F4.486386182884307
sg48
F-1323056326608.2004
sbsg49
F0.0
sg50
F1.0
sg42
F0.042752964924298524
sbag1
(g2
g3
Ntp719
Rp720
(dp721
g7
F36047.25082992963
sg8
F6.99772102e+17
sg9
I0
sg10
F0.07212735463065074
sg11
F5.072677827063836e+30
sg12
F1.5211496053752807e+28
sg13
F441688.1513484253
sg14
g133
sg25
g1
(g26
g3
Ntp722
Rp723
(dp724
g30
F1196675906126.0876
sg31
(lp725
F3.5266823504478753
aF2.79668644570947
aF2.4240418906995136
aF4.264292317816082
aF0.10213624298052683
aF5.696358860679311
aF2.644645838009644
aF3.4938794400554367
aF1.2956015458965062
aF5.840990520751224
asg33
F1584312596712.5737
sg34
F0.1699710943786271
sg35
F-423193223634.65326
sg36
(lp726
I2
aI1
aI1
aI1
aI2
aI2
aI2
aI2
aI1
aI2
asg11
F5.072677827063836e+30
sg38
F943043212328.913
sg39
F1298133391095.8508
sg40
F447023489.729296
sg41
F1041027040205.2809
sg42
F-800310542974.0422
sg43
F-1022082841986.2095
sg44
F1.5211496053752807e+28
sg45
F6371000.0
sg46
F0.25373134328358204
sg47
F4.048088255629402
sg48
F649861906953.4362
sbsg49
F0.001001001001001001
sg50
F1.0
sg42
F0.05164353769612357
sbag1
(g2
g3
Ntp727
Rp728
(dp729
g7
F84779495.76291792
sg8
F6.66523538e+17
sg9
I0
sg10
F0.044999844870890204
sg11
F3.800447899294274e+30
sg12
F5.102369773077562e+27
sg13
F726397.9597368819
sg14
g309
sg25
g1
(g26
g3
Ntp730
Rp731
(dp732
g30
F673892395708.3302
sg31
(lp733
F3.802448663242296
aF5.315555486425717
aF0.04613721153581261
aF4.180862071266029
aF5.355710205829191
aF1.090891798908253
aF2.6873930996325117
aF0.3909179528892389
aF4.154815716859896
aF3.9634451413506513
asg33
F917573527108.2402
sg34
F0.16816590014578936
sg35
F-472265231674.26013
sg36
(lp734
I2
aI0
aI1
aI2
aI0
aI2
aI1
aI2
aI1
aI2
asg11
F3.800447899294274e+30
sg38
F546174718516.8097
sg39
F592615188185.8215
sg40
F218249172.82936212
sg41
F-100993433620.0801
sg42
F369989905992.60614
sg43
F-462925729174.88513
sg44
F5.102369773077562e+27
sg45
F6371000.0
sg46
F0.2537313432835821
sg47
F5.386667847018737
sg48
F343451071603.8029
sbsg49
F0.0
sg50
F1.0
sg42
F0.08493268452308157
sbag1
(g2
g3
Ntp735
Rp736
(dp737
g7
F5086.623659986415
sg8
F3.81978908e+17
sg9
I0
sg10
F0.05563282473662602
sg11
F3.523179603958404e+30
sg12
F3.7685295853168875e+27
sg13
F484393.7239553224
sg14
g67
sg25
g1
(g26
g3
Ntp738
Rp739
(dp740
g30
F562457836581.2925
sg31
(lp741
F0.29126553061014127
aF2.2054778899237633
aF2.0766667838965387
aF6.091396598651897
aF5.633663656617842
aF1.742473866675085
aF1.0359282528545408
aF1.6802615572387092
aF1.187099029661092
aF1.453694363836046
asg33
F788571133583.125
sg34
F0.005704078438918844
sg35
F461431039744.4545
sg36
(lp742
I1
aI0
aI2
aI0
aI0
aI0
aI2
aI1
aI2
aI0
asg11
F3.523179603958404e+30
sg38
F469387579513.76495
sg39
F560608837171.5695
sg40
F172842974.20635325
sg41
F218961107922.13116
sg42
F320945620546.99524
sg43
F459647883674.62695
sg44
F3.7685295853168875e+27
sg45
F6371000.0
sg46
F0.25373134328358204
sg47
F7.244436271746123
sg48
F231127015064.7119
sbsg49
F0.24824824824824826
sg50
F1.0
sg42
F0.05663680464708385
sbag1
(g2
g3
Ntp743
Rp744
(dp745
g7
F92241.9767501303
sg8
F8.71258036e+17
sg9
I0
sg10
F0.07340008899826557
sg11
F5.60026669123302e+30
sg12
F2.1506608484978244e+28
sg13
F462493.80683556094
sg14
g574
sg25
g1
(g26
g3
Ntp746
Rp747
(dp748
g30
F1658332268228.64
sg31
(lp749
F2.3675473654302013
aF5.626015633008629
aF4.09221650638618
aF6.261554659862428
aF1.1890554693674495
aF3.244532084854551
aF2.463491492521255
aF1.6133599111173333
aF3.7241880050293337
aF3.1720447373122465
asg33
F1883826384533.1333
sg34
F0.11774055446889778
sg35
F-908354675232.8132
sg36
(lp750
I0
aI0
aI0
aI0
aI1
aI1
aI2
aI2
aI1
aI1
asg11
F5.60026669123302e+30
sg38
F1121325228888.7698
sg39
F1813521627787.308
sg40
F694044212.2153463
sg41
F557018491680.2697
sg42
F-1513315035956.554
sg43
F-999368949087.4436
sg44
F2.1506608484978244e+28
sg45
F6371000.0
sg46
F0.2537313432835821
sg47
F3.72523305702713
sg48
F-1467475000932.3
sbsg49
F0.0
sg50
F1.0
sg42
F0.054076198953080974
sbag1
(g2
g3
Ntp751
Rp752
(dp753
g7
F2193.1032264032497
sg8
F3.30689588e+17
sg9
I0
sg10
F0.06957502445561041
sg11
F3.293326457340891e+30
sg12
F2.87721243830169e+27
sg13
F479931.93130173767
sg14
g15
(g19
S'\xeez2Q\xde[\xe1?'
p754
tp755
Rp756
sg25
g1
(g26
g3
Ntp757
Rp758
(dp759
g30
F658821678520.8958
sg31
(lp760
F1.2161362959258548
aF2.6888727248835576
aF0.49456398299534654
aF2.27105518435848
aF5.6737299386850575
aF0.5944320731764333
aF0.7725080291531999
aF1.529479086667643
aF1.0169452851188039
aF2.3662116846626535
asg33
F689034353482.2908
sg34
F0.03692145418943385
sg35
F-231222155503.69138
sg36
(lp761
I1
aI2
aI0
aI2
aI1
aI0
aI0
aI2
aI0
aI2
asg11
F3.293326457340891e+30
sg38
F410139496120.4112
sg39
F634986638860.4657
sg40
F226630623.98313558
sg41
F-590957223197.8274
sg42
F621236041484.5039
sg43
F-131429875949.02185
sg44
F2.87721243830169e+27
sg45
F6371000.0
sg46
F0.2537313432835821
sg47
F6.074697656415693
sg48
F-22669510048.77527
sbsg49
F0.5945945945945946
sg50
F1.0
sg42
F0.056115118121433945
sbag1
(g2
g3
Ntp762
Rp763
(dp764
g7
F19130.068146216512
sg8
F6.02853186e+17
sg9
I0
sg10
F0.07241091077816339
sg11
F5.094081066275877e+30
sg12
F1.5437320795125606e+28
sg13
F377720.6124440898
sg14
g56
sg25
g1
(g26
g3
Ntp765
Rp766
(dp767
g30
F1353550283213.7124
sg31
(lp768
F3.989896485602826
aF5.999545726452353
aF5.217122195468809
aF2.373544578848211
aF1.7998049913414331
aF5.6578201833412765
aF0.22477389949848497
aF5.306748473046588
aF3.6098718459320254
aF3.027397019925198
asg33
F1596029356457.835
sg34
F0.013176515524516446
sg35
F354277383387.8695
sg36
(lp769
I0
aI2
aI2
aI2
aI2
aI2
aI2
aI0
aI1
aI0
asg11
F5.094081066275877e+30
sg38
F950017474082.0448
sg39
F1371148872610.8813
sg40
F536615026.0582841
sg41
F467024690947.6636
sg42
F-1353437752492.213
sg43
F-219671302156.01355
sg44
F1.5437320795125606e+28
sg45
F6371000.0
sg46
F0.253731343283582
sg47
F3.302495712014028
sg48
F-1239525999939.9668
sbsg49
F0.026026026026026026
sg50
F1.0
sg42
F0.044164256224232035
sbag1
(g2
g3
Ntp770
Rp771
(dp772
g7
F280047.65176525054
sg8
F8.65394636e+17
sg9
I0
sg10
F0.07221678367091731
sg11
F4.942230480478264e+30
sg12
F1.3885832720518801e+28
sg13
F571706.7550879909
sg14
g243
sg25
g1
(g26
g3
Ntp773
Rp774
(dp775
g30
F1096234280681.2761
sg31
(lp776
F2.131056352452665
aF1.4075212796512957
aF1.5181105410377578
aF5.776649523974294
aF1.597177494527047
aF0.22337607623276096
aF0.5021256146398019
aF1.4064342351386336
aF5.503462559756261
aF4.5555902292844
asg33
F1513703709634.8596
sg34
F0.09092980717288945
sg35
F-342546152299.72845
sg36
(lp777
I2
aI1
aI1
aI2
aI1
aI1
aI1
aI1
aI0
aI0
asg11
F4.942230480478264e+30
sg38
F901014112877.8927
sg39
F1105605965831.9343
sg40
F397079745.86763126
sg41
F-793569870246.7603
sg42
F-202745422065.42404
sg43
F-1086857325279.9456
sg44
F1.3885832720518801e+28
sg45
F6371000.0
sg46
F0.25373134328358204
sg47
F4.527965869875577
sg48
F689400860359.4543
sbsg49
F0.0
sg50
F1.0
sg42
F0.06684571290259586
sbag1
(g2
g3
Ntp778
Rp779
(dp780
g7
F129675.61504222643
sg8
F8.36086894e+17
sg9
I0
sg10
F0.0387031760078767
sg11
F5.918459895561095e+30
sg12
F2.6095878946988066e+28
sg13
F402912.3137980781
sg14
g15
(g19
S'\x82\xc6+\x8f\xea\x0b\xe7?'
p781
tp782
Rp783
sg25
g1
(g26
g3
Ntp784
Rp785
(dp786
g30
F1929758523986.727
sg31
(lp787
F0.06686570860429873
aF0.7448730057050535
aF1.4440014808098318
aF4.4821903478918825
aF4.413025895282784
aF3.702206689119842
aF0.4117062332019006
aF5.668341319571315
aF1.0291868217559965
aF4.3876001536849785
asg33
F2075108814914.5273
sg34
F0.05572935992916996
sg35
F1765487792293.815
sg36
(lp788
I2
aI2
aI1
aI2
aI1
aI1
aI2
aI2
aI1
aI1
asg11
F5.918459895561095e+30
sg38
F1235183818401.5044
sg39
F2030934940243.6711
sg40
F847489374.0630592
sg41
F35302481624.72278
sg42
F-1923039960146.6033
sg43
F653156982035.6467
sg44
F2.6095878946988066e+28
sg45
F6371000.0
sg46
F0.2537313432835821
sg47
F2.814169563426637
sg48
F1003246391249.5336
sbsg49
F0.0
sg50
F1.0
sg42
F0.047109747459467596
sbag1
(g2
g3
Ntp789
Rp790
(dp791
g7
F266484.38066694007
sg8
F6.95201736e+17
sg9
I0
sg10
F0.06208914985519701
sg11
F4.214830728859109e+30
sg12
F7.95374986924633e+27
sg13
F606834.0936267556
sg14
g541
sg25
g1
(g26
g3
Ntp792
Rp793
(dp794
g30
F1100748645464.8794
sg31
(lp795
F3.922470229485895
aF4.373925285958496
aF5.6220910546290055
aF0.24528646431161147
aF2.789929569848164
aF2.3507167365346
aF0.9547109293490625
aF1.51101385032827
aF2.978811105523778
aF4.6532311880106425
asg33
F1145620760766.9395
sg34
F0.025880187375093795
sg35
F185963521772.46478
sg36
(lp796
I2
aI0
aI1
aI0
aI0
aI2
aI0
aI2
aI2
aI1
asg11
F4.214830728859109e+30
sg38
F681917119504.1306
sg39
F1128312935640.6138
sg40
F432639666.3820395
sg41
F945595346687.315
sg42
F-1093560634040.2969
sg43
F-277876268168.6287
sg44
F7.95374986924633e+27
sg45
F6371000.0
sg46
F0.2537313432835821
sg47
F3.390428559060312
sg48
F-586819469366.1914
sbsg49
F0.0
sg50
F1.0
sg42
F0.07095290940866682
sbag1
(g2
g3
Ntp797
Rp798
(dp799
g7
F181073.6208218453
sg8
F7.10897132e+17
sg9
I0
sg10
F0.04024052317121198
sg11
F4.499072533064971e+30
sg12
F9.99474985225095e+27
sg13
F553561.5119939066
sg14
g298
sg25
g1
(g26
g3
Ntp800
Rp801
(dp802
g30
F949588745690.0082
sg31
(lp803
F0.09209851797024664
aF5.765334170988438
aF2.7476506583918967
aF0.9855641052466795
aF6.1187549227941815
aF0.6995024003411408
aF5.040508235986519
aF2.742347979988077
aF3.3225937769112073
aF5.284444481595845
asg33
F1284224276068.9355
sg34
F0.01598797428850147
sg35
F-349044903813.9271
sg36
(lp804
I2
aI1
aI0
aI0
aI0
aI2
aI2
aI0
aI0
aI0
asg11
F4.499072533064971e+30
sg38
F764419211945.795
sg39
F940405529769.6385
sg40
F335525865.3555219
sg41
F137902759123.58777
sg42
F559200704616.1716
sg43
F-756080109762.2472
sg44
F9.99474985225095e+27
sg45
F6371000.0
sg46
F0.25373134328358204
sg47
F5.349204091690516
sg48
F862272024693.4506
sbsg49
F0.0
sg50
F1.0
sg42
F0.0647241152485183
sbag1
(g2
g3
Ntp805
Rp806
(dp807
g7
F10986.118948392306
sg8
F4.5970599e+17
sg9
I0
sg10
F0.04555118770286506
sg11
F4.6105375798998594e+30
sg12
F1.088859711931062e+28
sg13
F342956.696657633
sg14
g24
sg25
g1
(g26
g3
Ntp808
Rp809
(dp810
g30
F1120652290540.4033
sg31
(lp811
F2.275863229386036
aF2.819763536171194
aF0.48075935224342475
aF0.30010000884195104
aF2.9315329265402377
aF2.2499931403984257
aF0.3421061280415488
aF2.402794302999897
aF0.421506072191514
aF1.077282029149992
asg33
F1340419926131.128
sg34
F0.12740634493367176
sg35
F1176872765596.0227
sg36
(lp812
I0
aI0
aI1
aI2
aI1
aI2
aI2
aI0
aI0
aI2
asg11
F4.6105375798998594e+30
sg38
F797869003649.4808
sg39
F1199424338544.147
sg40
F424927370.54057014
sg41
F-198132539751.40186
sg42
F-761052349605.4485
sg43
F-927048038157.727
sg44
F1.088859711931062e+28
sg45
F6371000.0
sg46
F0.2537313432835821
sg47
F4.0250085351563865
sg48
F119719397685.14221
sbsg49
F0.11311311311311312
sg50
F0.7736492947715579
sg42
F0.040099552224584785
sbag1
(g2
g3
Ntp813
Rp814
(dp815
g7
F60062.776816534264
sg8
F7.74403926e+17
sg9
I0
sg10
F0.07211435831013811
sg11
F5.194251750622034e+30
sg12
F1.652615908634692e+28
sg13
F468950.1410229629
sg14
g607
sg25
g1
(g26
g3
Ntp816
Rp817
(dp818
g30
F1472365462897.4766
sg31
(lp819
F2.2024675738463415
aF3.309298789573194
aF4.106998858676101
aF1.1321304214553294
aF2.952858338078948
aF3.651365008985061
aF5.034154272590049
aF5.171001863081016
aF5.188951220061245
aF2.0542835963210933
asg33
F1651356633160.8801
sg34
F0.05377007793665194
sg35
F-1127062346039.6565
sg36
(lp820
I0
aI2
aI2
aI2
aI2
aI1
aI0
aI2
aI1
aI1
asg11
F5.194251750622034e+30
sg38
F982950376881.4763
sg39
F1551511400327.4639
sg40
F602901132.2174858
sg41
F-534541663132.8265
sg42
F-1551101932350.682
sg43
F-35642962896.885994
sg44
F1.652615908634692e+28
sg45
F6371000.0
sg46
F0.25373134328358204
sg47
F3.164567733758548
sg48
F-922595959161.3574
sbsg49
F0.0
sg50
F1.0
sg42
F0.054831093411915666
sbag1
(g2
g3
Ntp821
Rp822
(dp823
g7
F9192.988494061492
sg8
F2.5646202999999997e+17
sg9
I0
sg10
F0.0717329231020132
sg11
F2.5201986995221123e+30
sg12
F9.866700126247213e+26
sg13
F635597.529242324
sg14
g122
sg25
g1
(g26
g3
Ntp824
Rp825
(dp826
g30
F284115768192.8797
sg31
(lp827
F0.6028958418244332
aF3.063579388880068
aF1.5259508814762315
aF4.871228152114784
aF3.526027898513217
aF3.263895427827384
aF2.2533113823463933
aF2.0738184535296798
aF5.15263087205372
aF2.342468151350072
asg33
F403497525085.9146
sg34
F0.0068505816103882605
sg35
F108751698890.33714
sg36
(lp828
I0
aI2
aI2
aI1
aI2
aI0
aI0
aI0
aI1
aI2
asg11
F2.5201986995221123e+30
sg38
F240177098265.42538
sg39
F285339222944.492
sg40
F73368523.43024282
sg41
F244653603045.5351
sg42
F-180537727748.2739
sg43
F220962895097.92508
sg44
F9.866700126247213e+26
sg45
F6371000.0
sg46
F0.25373134328358204
sg47
F14.822218090140298
sg48
F98671954758.53157
sbsg49
F0.1891891891891892
sg50
F1.0
sg42
F0.07431601880371788
sbag1
(g2
g3
Ntp829
Rp830
(dp831
g7
F175964.87314922202
sg8
F9.16542e+17
sg9
I0
sg10
F0.07349516762549187
sg11
F5.397699577044965e+30
sg12
F1.8904793118962024e+28
sg13
F518933.24680601904
sg14
g15
(g19
S'\xf2\xe0\xfeB\x9f\xca\xda?'
p832
tp833
Rp834
sg25
g1
(g26
g3
Ntp835
Rp836
(dp837
g30
F1301133147465.1733
sg31
(lp838
F3.8827639084278793
aF1.1874029325256208
aF3.5632831213256577
aF5.871602297412178
aF0.825570822387697
aF3.327064936122025
aF1.2219784966539267
aF4.098687407732564
aF6.27056962829408
aF1.4903672245191038
asg33
F1766204045782.8096
sg34
F0.10054141145070028
sg35
F381619619718.60114
sg36
(lp839
I1
aI2
aI0
aI1
aI0
aI2
aI0
aI0
aI1
aI0
asg11
F5.397699577044965e+30
sg38
F1051311932013.577
sg39
F1424334663347.6113
sg40
F491317712.6427588
sg41
F1166772518046.174
sg42
F-1356198569953.0042
sg43
F-435263910829.94653
sg44
F1.8904793118962024e+28
sg45
F6371000.0
sg46
F0.2537313432835821
sg47
F3.4521517550486496
sg48
F-722314052328.7461
sbsg49
F0.0
sg50
F1.0
sg42
F0.06067527193424223
sbag1
(g2
g3
Ntp840
Rp841
(dp842
g7
F192458963.69796628
sg8
F8.21838832e+17
sg9
I0
sg10
F0.045825375964398396
sg11
F4.1849899885029304e+30
sg12
F7.75839575423484e+27
sg13
F726349.7353552843
sg14
g309
sg25
g1
(g26
g3
Ntp843
Rp844
(dp845
g30
F934230215981.2507
sg31
(lp846
F5.11216723061071
aF5.137053616682
aF2.5752492183338656
aF5.2739646528960025
aF3.8446202942922176
aF4.548430782405943
aF5.317357767372478
aF2.8289409705576896
aF1.628436269977644
aF4.268382600505964
asg33
F1131464351120.068
sg34
F0.15415518375493203
sg35
F797200540469.7666
sg36
(lp847
I2
aI0
aI0
aI1
aI2
aI1
aI2
aI2
aI0
aI0
asg11
F4.1849899885029304e+30
sg38
F673490685190.5167
sg39
F1056960470044.565
sg40
F339482832.4958758
sg41
F342117984418.32635
sg42
F-940163865126.643
sg43
F-482967226576.4618
sg44
F7.75839575423484e+27
sg45
F6371000.0
sg46
F0.2537313432835821
sg47
F3.616144346559294
sg48
F-603814556175.223
sbsg49
F0.0
sg50
F1.0
sg42
F0.08492704598000247
sbag1
(g2
g3
Ntp848
Rp849
(dp850
g7
F31664.709904008025
sg8
F2.4865136399999997e+17
sg9
I0
sg10
F0.06416925509306744
sg11
F2.4084341862559188e+30
sg12
F8.22947118857046e+26
sg13
F674760.9961131165
sg14
g287
sg25
g1
(g26
g3
Ntp851
Rp852
(dp853
g30
F257936798909.17267
sg31
(lp854
F5.3527245645464845
aF3.145642566164499
aF1.04529034718318
aF5.781282703309904
aF0.2673707739744039
aF5.2778357105662135
aF2.9470174124273343
aF1.3464100661483691
aF0.17198784276550158
aF5.766066183502438
asg33
F368502870545.7602
sg34
F0.05917780139797113
sg35
F98836586176.06819
sg36
(lp855
I2
aI1
aI2
aI1
aI0
aI0
aI2
aI2
aI1
aI2
asg11
F2.4084341862559188e+30
sg38
F219346946753.42868
sg39
F250590682754.21606
sg40
F64921228.80801817
sg41
F-196969264423.3227
sg42
F108872215454.87253
sg43
F-225704521410.5645
sg44
F8.22947118857046e+26
sg45
F6371000.0
sg46
F0.2537313432835821
sg47
F17.728200847789044
sg48
F-119290101805.72397
sbsg49
F0.06606606606606606
sg50
F0.44854617697648397
sg42
F0.07889513185322593
sbag1
(g2
g3
Ntp856
Rp857
(dp858
g7
F61997.92210472786
sg8
F5.72224636e+17
sg9
I0
sg10
F0.07348740100674821
sg11
F3.933098139240535e+30
sg12
F5.852911119532038e+27
sg13
F582271.6914035655
sg14
g15
(g19
S'\x93\xc2\n\xa9c\\\xcf?'
p859
tp860
Rp861
sg25
g1
(g26
g3
Ntp862
Rp863
(dp864
g30
F789700278065.0737
sg31
(lp865
F0.25701338350791153
aF3.027400395031353
aF5.761709301194848
aF6.221498209589862
aF4.11908641925085
aF3.373317163335392
aF4.060190364289857
aF3.6133293136222315
aF5.685880116132985
aF2.583602236641264
asg33
F982745073215.998
sg34
F0.06005612165792931
sg35
F100117234441.32129
sg36
(lp866
I0
aI0
aI2
aI2
aI1
aI0
aI1
aI2
aI0
aI2
asg11
F3.933098139240535e+30
sg38
F584967305485.7131
sg39
F761005056750.2726
sg40
F272151172.1468256
sg41
F-237252647788.38635
sg42
F430380430808.548
sg43
F-627615631717.8009
sg44
F5.852911119532038e+27
sg45
F6371000.0
sg46
F0.2537313432835821
sg47
F5.313479452818539
sg48
F716112014202.1826
sbsg49
F0.012012012012012012
sg50
F1.0
sg42
F0.0680809977641092
sbag1
(g2
g3
Ntp867
Rp868
(dp869
g7
F54732.931125674004
sg8
F7.39692598e+17
sg9
I0
sg10
F0.07337291815186235
sg11
F4.9800910223230054e+30
sg12
F1.4261720768501592e+28
sg13
F482181.33777823625
sg14
g67
sg25
g1
(g26
g3
Ntp870
Rp871
(dp872
g30
F1447431641795.26
sg31
(lp873
F3.4712720691812073
aF5.8526973459077904
aF1.674036910614727
aF4.103854296166743
aF0.6843124699698593
aF4.571390922790375
aF4.544543218882977
aF1.11688395107322
aF5.168150390538033
aF3.3725317794743632
asg33
F1534054804792.544
sg34
F0.05744791818582571
sg35
F784716564646.1272
sg36
(lp874
I0
aI2
aI0
aI0
aI2
aI1
aI1
aI0
aI0
aI2
asg11
F4.9800910223230054e+30
sg38
F913127859995.562
sg39
F1527573575521.612
sg40
F600153879.1852393
sg41
F-236530684646.67755
sg42
F-1478188278014.9827
sg43
F-385279694989.21533
sg44
F1.4261720768501592e+28
sg45
F6371000.0
sg46
F0.25373134328358204
sg47
F3.3965630728141014
sg48
F-1289090445633.0586
sbsg49
F0.001001001001001001
sg50
F1.0
sg42
F0.05637812564791685
sbag1
(g2
g3
Ntp875
Rp876
(dp877
g7
F4719.721871038247
sg8
F2.36964682e+17
sg9
I0
sg10
F0.03422080666065981
sg11
F5.414771541017087e+30
sg12
F1.911489554425327e+28
sg13
F133426.70061511712
sg14
g689
sg25
g1
(g26
g3
Ntp878
Rp879
(dp880
g30
F1234489123385.2734
sg31
(lp881
F4.523581016385365
aF6.116966890454612
aF1.6771946427304603
aF6.095776668444297
aF3.275336547955356
aF0.16864826418825077
aF1.808825087041514
aF0.6475199311393024
aF5.4222454266708615
aF3.9347957224275043
asg33
F1775991468780.6655
sg34
F0.04904377662469472
sg35
F774102692559.6045
sg36
(lp882
I2
aI2
aI0
aI2
aI0
aI0
aI0
aI1
aI0
aI1
asg11
F5.414771541017087e+30
sg38
F1057137779036.1105
sg39
F1294273005960.1394
sg40
F453340998.9746863
sg41
F1023391571590.8699
sg42
F-1279534198584.7966
sg43
F-194768705415.0573
sg44
F1.911489554425327e+28
sg45
F6371000.0
sg46
F0.2537313432835821
sg47
F3.2926515198248305
sg48
F-169048296429.8534
sbsg49
F0.4694694694694695
sg50
F1.0
sg42
F0.015600660379613695
sbag1
(g2
g3
Ntp883
Rp884
(dp885
g7
F129884.98636533001
sg8
F8.34503776e+17
sg9
I0
sg10
F0.03892394776286355
sg11
F5.653572877490845e+30
sg12
F2.2231661902715817e+28
sg13
F435699.87052709766
sg14
g15
(g19
S"\xc8\xc2^\xea{'\xe5?"
p886
tp887
Rp888
sg25
g1
(g26
g3
Ntp889
Rp890
(dp891
g30
F1542322090337.909
sg31
(lp892
F5.961729203564175
aF5.68002797931555
aF4.616133166687855
aF5.955617496278513
aF1.5020015565635045
aF1.4689648357372493
aF1.0998087193460955
aF3.0400124576850267
aF1.2332293632934228
aF3.596409228796525
asg33
F1915317934316.6672
sg34
F0.2070630871452493
sg35
F-9304653945.36438
sg36
(lp893
I0
aI0
aI2
aI1
aI0
aI2
aI2
aI0
aI0
aI0
asg11
F5.653572877490845e+30
sg38
F1140070198998.016
sg39
F1831911013239.9797
sg40
F619562730.7936299
sg41
F-1648272899510.2617
sg42
F-1717912041602.6611
sg43
F636141633401.325
sg44
F2.2231661902715817e+28
sg45
F6371000.0
sg46
F0.2537313432835821
sg47
F2.7869494968219217
sg48
F-799379654848.0085
sbsg49
F0.0
sg50
F1.0
sg42
F0.0509433694770145
sbag1
(g2
g3
Ntp894
Rp895
(dp896
g7
F195620.89392866573
sg8
F7.85640052e+17
sg9
I0
sg10
F0.03535183940830668
sg11
F4.929241970652567e+30
sg12
F1.3758526640927284e+28
sg13
F521414.06319518667
sg14
g834
sg25
g1
(g26
g3
Ntp897
Rp898
(dp899
g30
F1094532042384.1848
sg31
(lp900
F5.857644721606924
aF0.12876279034113308
aF0.32548923727145
aF1.5799604842305413
aF5.908353102904586
aF1.2960711977976422
aF0.2854841313031783
aF0.4203434135359067
aF1.635520838459652
aF1.162505377619041
asg33
F1506748872835.6426
sg34
F0.012379751749005907
sg35
F574347644519.7527
sg36
(lp901
I0
aI0
aI2
aI1
aI1
aI2
aI1
aI0
aI2
aI0
asg11
F4.929241970652567e+30
sg38
F896874329068.8348
sg39
F1107741897366.9695
sg40
F396676813.17524105
sg41
F-495926452581.60675
sg42
F-1080603337052.2882
sg43
F243697638752.68158
sg44
F1.3758526640927284e+28
sg45
F6371000.0
sg46
F0.2537313432835821
sg47
F2.919783345645351
sg48
F807015395173.2328
sbsg49
F0.0
sg50
F1.0
sg42
F0.0609653366197449
sbag1
(g2
g3
Ntp902
Rp903
(dp904
g7
F226623.0970199679
sg8
F9.21744996e+17
sg9
I0
sg10
F0.07348109812721142
sg11
F5.288036247269746e+30
sg12
F1.7594297417814524e+28
sg13
F540965.9289897826
sg14
g15
(g19
S']-\x87+\r\xe8\xd6?'
p905
tp906
Rp907
sg25
g1
(g26
g3
Ntp908
Rp909
(dp910
g30
F1508997625038.6448
sg31
(lp911
F5.642003134982394
aF5.574697121617395
aF2.367358991324114
aF2.7233321869800218
aF0.33405532781563635
aF5.76173118463789
aF2.20990773692221
aF4.516058882026925
aF2.0371345556415683
aF3.2977226036466565
asg33
F1703887336715.08
sg34
F0.0838069398550781
sg35
F-1077577844480.4819
sg36
(lp912
I2
aI2
aI0
aI2
aI2
aI1
aI1
aI2
aI0
aI2
asg11
F5.288036247269746e+30
sg38
F1014218652806.5955
sg39
F1631952866863.568
sg40
F619968732.7146357
sg41
F-941862839080.3237
sg42
F-1593589296487.8926
sg43
F351771678483.98785
sg44
F1.7594297417814524e+28
sg45
F6371000.0
sg46
F0.253731343283582
sg47
F2.9243349591055328
sg48
F-784213326275.8096
sbsg49
F0.0
sg50
F1.0
sg42
F0.06325140092803612
sbag1
(g2
g3
Ntp913
Rp914
(dp915
g7
F83225.56170735782
sg8
F4.7911693e+17
sg9
I0
sg10
F0.05585917725351002
sg11
F3.4924868785620976e+30
sg12
F3.638915150116244e+27
sg13
F618301.9868132281
sg14
g342
sg25
g1
(g26
g3
Ntp916
Rp917
(dp918
g30
F534915545621.9373
sg31
(lp919
F4.2943007509625275
aF4.514032821606613
aF3.7631994735381906
aF0.962865908358585
aF4.894028104491673
aF3.2734760510814827
aF3.409633578375579
aF2.120502023903514
aF5.299328981679357
aF1.407244543970695
asg33
F774891461160.2694
sg34
F0.042954669461281236
sg35
F21867734056.842102
sg36
(lp920
I1
aI2
aI2
aI0
aI0
aI2
aI0
aI1
aI0
aI2
asg11
F3.4924868785620976e+30
sg38
F461244917357.3033
sg39
F532990623155.96173
sg40
F161006942.1513807
sg41
F-441163582244.84015
sg42
F21835759966.398273
sg43
F532543147509.073
sg44
F3.638915150116244e+27
sg45
F6371000.0
sg46
F0.253731343283582
sg47
F7.81300178957613
sg48
F298287613353.7897
sbsg49
F0.01701701701701702
sg50
F1.0
sg42
F0.07229377076585436
sbag1
(g2
g3
Ntp921
Rp922
(dp923
g7
F348.09596180041103
sg8
F1.5829637e+17
sg9
I0
sg10
F0.04993982006907647
sg11
F3.6528747649198603e+30
sg12
F4.3548372501320916e+27
sg13
F186736.87238340318
sg14
g15
(g19
S'\xa4\xdb\x19\xa4rI\xee?'
p924
tp925
Rp926
sg25
g1
(g26
g3
Ntp927
Rp928
(dp929
g30
F599011721518.1906
sg31
(lp930
F4.778829299061048
aF6.14324428418926
aF2.4877070147323366
aF5.383600032490318
aF0.5113249621019667
aF0.13904145794358033
aF5.8688971636954195
aF5.92358678925128
aF0.13513819325082246
aF1.7018886070293413
asg33
F847697447106.1619
sg34
F0.09766943610305798
sg35
F-133804723586.15118
sg36
(lp931
I2
aI2
aI0
aI1
aI2
aI1
aI2
aI0
aI0
aI0
asg11
F3.6528747649198603e+30
sg38
F504581813753.6677
sg39
F619135846514.0625
sg40
F186560524.44230062
sg41
F-503525056402.82434
sg42
F-264548355888.64618
sg43
F559770813668.6826
sg44
F4.3548372501320916e+27
sg45
F6371000.0
sg46
F0.25373134328358216
sg47
F2.012285635489948
sg48
F334496651641.31445
sbsg49
F0.97997997997998
sg50
F0.18263258971593851
sg42
F0.021833849694059448
sbag1
(g2
g3
Ntp932
Rp933
(dp934
g7
F8447317.075983774
sg8
F4.22738796e+17
sg9
I0
sg10
F0.07306279469627895
sg11
F3.026458918492294e+30
sg12
F2.0519743565201946e+27
sg13
F726492.6601181944
sg14
g309
sg25
g1
(g26
g3
Ntp935
Rp936
(dp937
g30
F445896772990.80457
sg31
(lp938
F4.297694859879836
aF3.5226951974930616
aF0.6043023515557355
aF2.0480633919625
aF5.135684265931191
aF4.386045551964108
aF3.0720147483328604
aF5.6422773578981404
aF5.525380784573209
aF0.7888531340066721
asg33
F581889975228.6884
sg34
F0.100288949007355
sg35
F-452332666912.49133
sg36
(lp939
I0
aI2
aI2
aI1
aI1
aI0
aI2
aI1
aI2
aI1
asg11
F3.026458918492294e+30
sg38
F346363080493.26685
sg39
F490549107057.99695
sg40
F131634057.04294296
sg41
F189094198446.4196
sg42
F-489955351990.85406
sg43
F24128395945.781734
sg44
F2.0519743565201946e+27
sg45
F6371000.0
sg46
F0.25373134328358216
sg47
F9.375571601556269
sg48
F-16642385440.115997
sbsg49
F0.0
sg50
F1.0
sg42
F0.08494375718305043
sbag1
(g2
g3
Ntp940
Rp941
(dp942
g7
F9357.193398979021
sg8
F1.88505224e+17
sg9
I0
sg10
F0.07175001466716009
sg11
F2.0971755369222138e+30
sg12
F4.731206775225584e+26
sg13
F674656.1986478927
sg14
g287
sg25
g1
(g26
g3
Ntp943
Rp944
(dp945
g30
F191429354198.77512
sg31
(lp946
F4.546401840937338
aF5.448316623389792
aF4.461758866063566
aF4.147773569572843
aF4.973452644373103
aF0.09556796613092894
aF5.980895323158191
aF3.2820620867671155
aF4.343197298654116
aF4.2696132908755065
asg33
F279409311554.2277
sg34
F0.05050560843348489
sg35
F75358597640.37656
sg36
(lp947
I0
aI1
aI1
aI2
aI0
aI1
aI1
aI0
aI2
aI0
asg11
F2.0971755369222138e+30
sg38
F166315066401.32602
sg39
F186449930167.13113
sg40
F44481515.366302505
sg41
F170540546080.91925
sg42
F88923250682.01485
sg43
F-163878711086.8023
sg44
F4.731206775225584e+26
sg45
F6371000.0
sg46
F0.2537313432835821
sg47
F24.059101533211624
sg48
F761815873.9262924
sbsg49
F0.15915915915915915
sg50
F1.0
sg42
F0.07888287861113823
sbag1
(g2
g3
Ntp948
Rp949
(dp950
g7
F68212.44123243725
sg8
F4.40227158e+17
sg9
I0
sg10
F0.07340791668481336
sg11
F3.3092896659707426e+30
sg12
F2.9334043326645627e+27
sg13
F632755.5393410753
sg14
g15
(g19
S'Zl\x1f\x19\xe8J\xc0?'
p951
tp952
Rp953
sg25
g1
(g26
g3
Ntp954
Rp955
(dp956
g30
F650899091937.9058
sg31
(lp957
F5.436528214992101
aF1.2524433195631177
aF5.830307516854714
aF2.5897477188404854
aF4.339943238540764
aF3.3245141912491607
aF0.9691260415579352
aF2.768117361624578
aF1.7370479904222906
aF1.1225107381133292
asg33
F695730231707.5466
sg34
F0.030324817679146403
sg35
F-1745663771.2861176
sg36
(lp958
I0
aI2
aI1
aI2
aI2
aI1
aI2
aI1
aI2
aI2
asg11
F3.3092896659707426e+30
sg38
F414125137921.15875
sg39
F632746038204.6516
sg40
F222017532.3169305
sg41
F-455719818548.2119
sg42
F578881978787.1848
sg43
F255466638720.43198
sg44
F2.9334043326645627e+27
sg45
F6371000.0
sg46
F0.25373134328358204
sg47
F6.698789508085561
sg48
F-438957798090.04956
sbsg49
F0.021021021021021023
sg50
F1.0
sg42
F0.07398372459987958
sbag1
(g2
g3
Ntp959
Rp960
(dp961
g7
F31576.50101031027
sg8
F6.87918776e+17
sg9
I0
sg10
F0.07338951781380036
sg11
F5.225785340513317e+30
sg12
F1.6879980053730414e+28
sg13
F412188.8958669453
sg14
g15
(g19
S'\xcec8h\x98q\xe6?'
p962
tp963
Rp964
sg25
g1
(g26
g3
Ntp965
Rp966
(dp967
g30
F1194755337611.748
sg31
(lp968
F2.4551658479203926
aF5.101048792939248
aF2.9430103964975243
aF0.14609775440110911
aF3.5925726332566223
aF3.0311557902055517
aF5.51532396466326
aF5.626432329579318
aF1.5090900472753401
aF2.946632535911999
asg33
F1668940582577.121
sg34
F0.1654740071814313
sg35
F-571616662955.7205
sg36
(lp969
I1
aI1
aI1
aI1
aI1
aI1
aI0
aI1
aI2
aI1
asg11
F5.225785340513317e+30
sg38
F993417013438.7626
sg39
F1241834476529.6108
sg40
F439366408.697037
sg41
F-340730090448.0712
sg42
F-482211733708.51807
sg43
F-1144388356709.119
sg44
F1.6879980053730414e+28
sg45
F6371000.0
sg46
F0.25373134328358204
sg47
F4.31359638640394
sg48
F-1048479977487.4999
sbsg49
F0.003003003003003003
sg50
F1.0
sg42
F0.048194393978288994
sbag1
(g2
g3
Ntp970
Rp971
(dp972
g7
F204793290.34824848
sg8
F6.27744862e+17
sg9
I0
sg10
F0.05979681369386028
sg11
F3.66298198811057e+30
sg12
F4.4032356569405596e+27
sg13
F736448.3466600144
sg14
g15
(g19
S'b\xae\x1b\xd1\x1fkr?'
p973
tp974
Rp975
sg25
g1
(g26
g3
Ntp976
Rp977
(dp978
g30
F703631971625.0236
sg31
(lp979
F1.3684942911969487
aF4.489313099596843
aF3.642502121693478
aF0.9215310701860381
aF3.347146446096092
aF1.8645257228035863
aF3.9724698413809283
aF2.3552719759096887
aF2.437627791031778
aF1.4239810363494017
asg33
F852394964082.6638
sg34
F0.09541241245773904
sg35
F13605076709.624847
sg36
(lp980
I1
aI1
aI0
aI2
aI0
aI2
aI0
aI1
aI2
aI1
asg11
F3.66298198811057e+30
sg38
F507377954811.1094
sg39
F704513449388.7338
sg40
F237183853.00041682
sg41
F121726093597.47885
sg42
F-76373830707.44064
sg43
F-700361505476.0529
sg44
F4.4032356569405596e+27
sg45
F6371000.0
sg46
F0.2537313432835821
sg47
F4.603769027275795
sg48
F-693784448077.9567
sbsg49
F0.0
sg50
F1.0
sg42
F0.08610780668640168
sbag1
(g2
g3
Ntp981
Rp982
(dp983
g7
F9196.129655423789
sg8
F4.64060336e+17
sg9
I0
sg10
F0.05220238339273859
sg11
F4.205966913562464e+30
sg12
F7.895359855356682e+27
sg13
F406568.3571683177
sg14
g15
(g19
S'\x1c\xfe\x05\xc8\x07\xc0\xe6?'
p984
tp985
Rp986
sg25
g1
(g26
g3
Ntp987
Rp988
(dp989
g30
F773502436675.3512
sg31
(lp990
F5.554539082039082
aF3.2923945864641477
aF2.592298726083084
aF2.2093534334194316
aF3.5462924420488293
aF4.837564072747341
aF0.18089825985421046
aF6.120694754827598
aF5.97385094787165
aF1.9010054721255758
asg33
F1141407903045.1472
sg34
F0.08983075639739485
sg35
F-444749958117.7815
sg36
(lp991
I1
aI1
aI1
aI0
aI2
aI1
aI0
aI2
aI2
aI2
asg11
F4.205966913562464e+30
sg38
F679409466098.3019
sg39
F705602995852.537
sg40
F255119566.06809896
sg41
F244814315184.484
sg42
F686375304670.3253
sg43
F163598682435.9946
sg44
F7.895359855356682e+27
sg45
F6371000.0
sg46
F0.2537313432835821
sg47
F6.517171124478853
sg48
F-490039808169.7637
sbsg49
F0.16316316316316315
sg50
F1.0
sg42
F0.04753722329968023
sbag1
(g2
g3
Ntp992
Rp993
(dp994
g7
F198599455.58583644
sg8
F6.54228914e+17
sg9
I0
sg10
F0.07343597202558332
sg11
F3.748303799284171e+30
sg12
F4.828051890315538e+27
sg13
F732974.488068732
sg14
g975
sg25
g1
(g26
g3
Ntp995
Rp996
(dp997
g30
F761628981699.7139
sg31
(lp998
F3.4822671851514215
aF1.2801960435264799
aF3.871189411913494
aF1.2404116688600033
aF2.8710487889272214
aF6.2277522033867765
aF3.399615870063978
aF0.7983599097732691
aF0.7156901202465453
aF4.377005170332105
asg33
F892567101105.7783
sg34
F0.00586361793579196
sg35
F-438337128093.45264
sg36
(lp999
I2
aI1
aI0
aI0
aI2
aI2
aI0
aI2
aI1
aI0
asg11
F3.748303799284171e+30
sg38
F531289941134.3919
sg39
F761187980492.8024
sg40
F264047442.34057394
sg41
F602294908594.2485
sg42
F70743843162.08563
sg43
F-757893429382.6337
sg44
F4.828051890315538e+27
sg45
F6371000.0
sg46
F0.25373134328358204
sg47
F4.80546202646933
sg48
F156552057996.50525
sbsg49
F0.0
sg50
F1.0
sg42
F0.08570163245111327
sbag1
(g2
g3
Ntp1000
Rp1001
(dp1002
g7
F5286.368477468405
sg8
F3.66203276e+17
sg9
I0
sg10
F0.04724810573639267
sg11
F3.434272744106297e+30
sg12
F3.402294703719091e+27
sg13
F488743.89982333046
sg14
g155
sg25
g1
(g26
g3
Ntp1003
Rp1004
(dp1005
g30
F634640420966.9148
sg31
(lp1006
F5.0586321748000245
aF4.866673636979132
aF1.2910779561299905
aF2.800876615886609
aF3.7128635291479455
aF0.6353333355438969
aF1.7447254783968333
aF1.1483599201684282
aF3.4837530372777916
aF1.7434111928601248
asg33
F749274366661.9143
sg34
F0.1520325790496396
sg35
F-479188376126.2425
sg36
(lp1007
I0
aI1
aI2
aI1
aI1
aI1
aI2
aI2
aI2
aI1
asg11
F3.434272744106297e+30
sg38
F445996646822.56805
sg39
F539502694720.8568
sg40
F209825548.36069414
sg41
F15271563556.482483
sg42
F529285948386.7633
sg43
F-104496614545.11588
sg44
F3.402294703719091e+27
sg45
F6371000.0
sg46
F0.25373134328358204
sg47
F6.08826268222951
sg48
F247403389514.1719
sbsg49
F0.23123123123123124
sg50
F0.15415910890445544
sg42
F0.05714544059472787
sbag1
(g2
g3
Ntp1008
Rp1009
(dp1010
g7
F257284064.36115733
sg8
F3.61867446e+17
sg9
I0
sg10
F0.06181413460398364
sg11
F2.7620706505039695e+30
sg12
F1.4235473889678534e+27
sg13
F746635.5080370157
sg14
g15
(g19
S'\xc6\x8140\x940U?'
p1011
tp1012
Rp1013
sg25
g1
(g26
g3
Ntp1014
Rp1015
(dp1016
g30
F398984572650.7661
sg31
(lp1017
F4.880644910824844
aF3.3151509017299223
aF4.048626394647553
aF5.738665229035249
aF3.8538010355596275
aF5.924536806739375
aF6.231254697911698
aF2.5806844061882477
aF0.26470395832662164
aF2.2296207311096303
asg33
F484664126075.90564
sg34
F0.03268905652812226
sg35
F-45081616904.72273
sg36
(lp1018
I2
aI1
aI2
aI1
aI1
aI2
aI1
aI1
aI1
aI2
asg11
F2.7620706505039695e+30
sg38
F288490551235.65814
sg39
F404247761131.81573
sg40
F116627489.65677118
sg41
F243545687034.2658
sg42
F-174050088693.96365
sg43
F-364859999185.5903
sg44
F1.4235473889678534e+27
sg45
F6371000.0
sg46
F0.25373134328358204
sg47
F10.550468895484297
sg48
F319483017583.6405
sbsg49
F0.0
sg50
F1.0
sg42
F0.0872989209397126
sbag1
(g2
g3
Ntp1019
Rp1020
(dp1021
g7
F5075421.3333101645
sg8
F8.7322999e+17
sg9
I0
sg10
F0.04067615115817089
sg11
F4.555063371492821e+30
sg12
F1.0436909775249037e+28
sg13
F665407.6160225219
sg14
g221
sg25
g1
(g26
g3
Ntp1022
Rp1023
(dp1024
g30
F1237811139945.415
sg31
(lp1025
F3.832646258915696
aF3.653353527391355
aF5.865775539133555
aF6.0569241049745735
aF6.168663995601709
aF0.18314869928868183
aF5.227922556861445
aF3.5158690131264914
aF5.397126959009563
aF3.27680612141301
asg33
F1312323407447.2092
sg34
F0.021527668691154408
sg35
F-854047643057.3568
sg36
(lp1026
I0
aI1
aI1
aI2
aI2
aI1
aI2
aI0
aI0
aI2
asg11
F4.555063371492821e+30
sg38
F781144885385.2435
sg39
F1256200416555.2734
sg40
F496270583.3429148
sg41
F-714724390254.258
sg42
F-880863075299.5701
sg43
F895611371705.064
sg44
F1.0436909775249037e+28
sg45
F6371000.0
sg46
F0.25373134328358216
sg47
F2.347892677795979
sg48
F581215240610.1335
sbsg49
F0.0
sg50
F1.0
sg42
F0.07780150587340255
sbag1
(g2
g3
Ntp1027
Rp1028
(dp1029
g7
F42401807.14757033
sg8
F8.6929534e+17
sg9
I0
sg10
F0.06043837074170098
sg11
F4.390302281891237e+30
sg12
F9.174278698576267e+27
sg13
F706523.2796930327
sg14
g440
sg25
g1
(g26
g3
Ntp1030
Rp1031
(dp1032
g30
F1108241198753.8254
sg31
(lp1033
F2.36231674567485
aF3.827984146289763
aF2.7111564010004194
aF1.0749277907136696
aF3.43527276298215
aF4.8424474904649655
aF3.1679712529986714
aF2.458520444029161
aF0.43089087078525684
aF2.535851068486661
asg33
F1230384567622.015
sg34
F0.003634901704487612
sg35
F43396420002.80084
sg36
(lp1034
I0
aI2
aI2
aI1
aI1
aI1
aI1
aI2
aI0
aI0
asg11
F4.390302281891237e+30
sg38
F732371766441.6755
sg39
F1112243161254.8367
sg40
F428241142.55196905
sg41
F552428515940.9049
sg42
F-1105010664915.1438
sg43
F-126634435213.90277
sg44
F9.174278698576267e+27
sg45
F6371000.0
sg46
F0.2537313432835821
sg47
F3.2556950736797043
sg48
F964377693263.5999
sbsg49
F0.0
sg50
F1.0
sg42
F0.08260887577949305
sbag1
(g2
g3
Ntp1035
Rp1036
(dp1037
g7
F1419.179658603195
sg8
F2.37733096e+17
sg9
I0
sg10
F0.04486140013184196
sg11
F4.018781768604008e+30
sg12
F6.73243127963097e+27
sg13
F225553.08470537767
sg14
g394
sg25
g1
(g26
g3
Ntp1038
Rp1039
(dp1040
g30
F808549136458.3125
sg31
(lp1041
F4.762947731774742
aF3.8302013638042833
aF4.264780340604674
aF2.0637986023668073
aF2.1017915759339845
aF0.6859029129802153
aF1.5346442636900068
aF5.458828020253314
aF2.89773715966783
aF4.91098923968844
asg33
F1054000641625.1505
sg34
F0.007226377583672103
sg35
F-263437763267.90298
sg36
(lp1042
I2
aI1
aI2
aI1
aI2
aI1
aI2
aI0
aI2
aI1
asg11
F4.018781768604008e+30
sg38
F627381334300.6849
sg39
F811933577426.3245
sg40
F278930868.4729961
sg41
F-79718368395.68488
sg42
F-474188318446.34784
sg43
F-659076302715.6523
sg44
F6.73243127963097e+27
sg45
F6371000.0
sg46
F0.253731343283582
sg47
F4.088712376487457
sg48
F763859712759.5116
sbsg49
F0.7737737737737738
sg50
F0.2654696956971817
sg42
F0.02637236067324416
sbag1
(g2
g3
Ntp1043
Rp1044
(dp1045
g7
F18958.084809215343
sg8
F4.35200064e+17
sg9
I0
sg10
F0.0733460032245355
sg11
F3.445361394612933e+30
sg12
F3.4464495780966175e+27
sg13
F577096.0148690188
sg14
g15
(g19
S'\xb3\xf3\xfeF\xa1\x90\xd0?'
p1046
tp1047
Rp1048
sg25
g1
(g26
g3
Ntp1049
Rp1050
(dp1051
g30
F667266582596.1317
sg31
(lp1052
F4.640055295151544
aF1.5311650772757295
aF1.2570541901261993
aF4.066518799457548
aF0.33489730513848126
aF0.24234766536062272
aF5.467847970563952
aF0.5765638206054257
aF4.3288348917702875
aF2.1713106254499395
asg33
F754120723046.018
sg34
F0.12572702540674527
sg35
F-345496859919.8283
sg36
(lp1053
I0
aI2
aI1
aI0
aI2
aI2
aI1
aI1
aI1
aI1
asg11
F3.445361394612933e+30
sg38
F448881382765.4869
sg39
F619280020168.077
sg40
F225847785.19955447
sg41
F254937541936.1193
sg42
F297779171342.2407
sg43
F-542987392573.8077
sg44
F3.4464495780966175e+27
sg45
F6371000.0
sg46
F0.25373134328358204
sg47
F5.214009871307979
sg48
F446258347682.6869
sbsg49
F0.06706706706706707
sg50
F1.0
sg42
F0.06747584173853143
sba.