(lp0
ccopy_reg
_reconstructor
p1
(crand_orbits
star
p2
c__builtin__
object
p3
Ntp4
Rp5
(dp6
S'tau'
p7
F1496197.0248450572
sS'd'
p8
F9.17906012e+17
sS't_exclude'
p9
I0
sS'f_L'
p10
F0.031410517060977056
sS'M'
p11
F6.863593689210478e+30
sS'L'
p12
F4.383004626794041e+28
sS'x_in'
p13
F341316.54366332735
sS'p_'
p14
cnumpy.core.multiarray
scalar
p15
(cnumpy
dtype
p16
(S'f8'
p17
I0
I1
tp18
Rp19
(I3
S'<'
p20
NNNI-1
I-1
I0
tp21
bS'\x01\xb1\xdb\xf3\x98\x05\xed?'
p22
tp23
Rp24
sS'planet'
p25
g1
(crand_orbits
orbit
p26
g3
Ntp27
Rp28
(dp29
S'a'
p30
F1979572337895.3706
sS'thetas'
p31
(lp32
F0.3107017315102319
aF3.846801201715957
aF5.5514242012924475
aF1.790742331334707
aF4.197592684843272
aF0.6857472906903485
aF3.2928445126628603
aF1.586703238306757
aF2.4901204914068984
aF5.545421216470718
asS'a_max'
p33
F2689310052622.0522
sS'e'
p34
F0.11220370560483724
sS'z_'
p35
F-1297612769220.925
sS'axes'
p36
(lp37
I0
aI0
aI2
aI0
aI2
aI2
aI0
aI2
aI1
aI1
asg11
F6.863593689210478e+30
sS'a_min'
p38
F1600779793227.4124
sS'r'
p39
F2189979688267.7705
sS'T'
p40
F817646243.5750322
sS'y_'
p41
F-10888517540.317291
sS'x'
p42
F-2097341746872.8142
sS'y'
p43
F630213163818.318
sS'lum_star'
p44
F4.383004626794041e+28
sS'R'
p45
F6371000.0
sS'e_max'
p46
F0.253731343283582
sS'nu'
p47
F2.8496938379551326
sS'x_'
p48
F-1764112688114.333
sbsS'findalbe'
p49
F0.0
sS'tau_exclude'
p50
F1.0
sg42
F0.10808357216005367
sbag1
(g2
g3
Ntp51
Rp52
(dp53
g7
F69772.96560500767
sg8
F5.1796041199999994e+17
sg9
I0
sg10
F0.059140038558754694
sg11
F4.683911806214934e+30
sg12
F1.1507260086460862e+28
sg13
F375885.6034419202
sg14
g15
(g19
S'H\xc8\xed\\\x8dQ\xec?'
p54
tp55
Rp56
sg25
g1
(g26
g3
Ntp57
Rp58
(dp59
g30
F1101565732757.1174
sg31
(lp60
F5.100318253651414
aF4.588664708352283
aF3.8003481924213367
aF0.08958780672040903
aF5.015621165339286
aF3.361686403964945
aF2.148337007855867
aF3.6642564433599105
aF0.21075201942112465
aF3.099123164057414
asg33
F1377973530396.283
sg34
F0.028663238422414396
sg35
F-479857734676.4904
sg36
(lp61
I2
aI1
aI0
aI1
aI1
aI0
aI1
aI2
aI2
aI2
asg11
F4.683911806214934e+30
sg38
F820222339521.597
sg39
F1133083950533.966
sg40
F410861489.2942508
sg41
F840580175616.9777
sg42
F-1131178655957.2925
sg43
F65681711794.931015
sg44
F1.1507260086460862e+28
sg45
F6371000.0
sg46
F0.2537313432835821
sg47
F3.0835929339644377
sg48
F-589101656582.7468
sbsg49
F0.0
sg50
F1.0
sg42
F0.11903044108994139
sbag1
(g2
g3
Ntp62
Rp63
(dp64
g7
F102204.3552595388
sg8
F2.6498247600000003e+17
sg9
I0
sg10
F0.06739083064349886
sg11
F2.1258606009211127e+30
sg12
F4.995419089290492e+26
sg13
F922945.9716040265
sg14
g15
(g19
S'\xe8\xdc\xe8@\xe1\xb0\xb2?'
p65
tp66
Rp67
sg25
g1
(g26
g3
Ntp68
Rp69
(dp70
g30
F224440630802.81116
sg31
(lp71
F3.7330060776197844
aF1.1697880394668825
aF2.146583934074801
aF5.34635893548954
aF4.497450708843453
aF5.88938787175755
aF4.052625414517617
aF3.873496832685429
aF0.002285277168293258
aF2.5072361041544657
asg33
F287105078902.3716
sg34
F0.07212546597818441
sg35
F-38369558794.50302
sg36
(lp72
I1
aI1
aI0
aI1
aI2
aI0
aI2
aI2
aI1
aI1
asg11
F2.1258606009211127e+30
sg38
F170895880299.0307
sg39
F208473870631.99146
sg40
F56087875.967922516
sg41
F-199270587213.30206
sg42
F205186908887.64578
sg43
F36873936017.42648
sg44
F4.995419089290492e+26
sg45
F6371000.0
sg46
F0.2537313432835821
sg47
F19.027366986519063
sg48
F-47753164982.70293
sbsg49
F0.009009009009009009
sg50
F1.0
sg42
F0.2922662243412751
sbag1
(g2
g3
Ntp73
Rp74
(dp75
g7
F1736.117238752672
sg8
F2.30178568e+17
sg9
I0
sg10
F0.06869278860341527
sg11
F2.741162507757579e+30
sg12
F1.3809308412321253e+27
sg13
F482196.44989956636
sg14
g15
(g19
S'\xecP\xb2R\xc2\xa4\xe9?'
p76
tp77
Rp78
sg25
g1
(g26
g3
Ntp79
Rp80
(dp81
g30
F317768681246.8248
sg31
(lp82
F3.794955247888644
aF3.497359660361551
aF1.8771113823902443
aF5.085472045646493
aF3.5632334150653633
aF4.718067857716307
aF0.7286563968030899
aF4.8297611173773385
aF5.901474720965984
aF2.170378846746155
asg33
F477354339808.89417
sg34
F0.00024618657634906696
sg35
F-106180316006.25586
sg36
(lp83
I1
aI2
aI2
aI0
aI2
aI1
aI0
aI1
aI1
aI1
asg11
F2.741162507757579e+30
sg38
F284139487981.4846
sg39
F317844312061.46075
sg40
F83211511.37704282
sg41
F279766460288.1207
sg42
F-307287566317.1826
sg43
F81236434539.47456
sg44
F1.3809308412321253e+27
sg45
F6371000.0
sg46
F0.2537313432835821
sg47
F9.166324570595048
sg48
F-107151644413.37451
sbsg49
F0.8828828828828829
sg50
F1.0
sg42
F0.15269554246819603
sbag1
(g2
g3
Ntp84
Rp85
(dp86
g7
F984644.9082229579
sg8
F7.3476117e+17
sg9
I0
sg10
F0.04691196254244465
sg11
F3.7934536594612787e+30
sg12
F5.064912291157984e+27
sg13
F803721.0108332222
sg14
g15
(g19
S'9M\x7f\xe1\xde\xdc\xcf?'
p87
tp88
Rp89
sg25
g1
(g26
g3
Ntp90
Rp91
(dp92
g30
F677858499148.2567
sg31
(lp93
F3.996832552495441
aF0.9506767853465625
aF4.3579104836794755
aF0.5193648809362668
aF1.0057926860133881
aF1.4661298231021584
aF0.17132520725615152
aF4.2201319934833705
aF0.3413260016509377
aF3.688389601220716
asg33
F914199280715.9152
sg34
F0.14087240785473862
sg35
F-98002024857.96683
sg36
(lp94
I0
aI0
aI0
aI1
aI2
aI1
aI1
aI2
aI2
aI0
asg11
F3.7934536594612787e+30
sg38
F544166238521.3781
sg39
F589047456995.9393
sg40
F220381604.83692005
sg41
F-189071188475.3949
sg42
F534944475354.9777
sg43
F-246599503001.46707
sg44
F5.064912291157984e+27
sg45
F6371000.0
sg46
F0.25373134328358204
sg47
F5.85123678820791
sg48
F549203601049.39514
sbsg49
F0.0
sg50
F1.0
sg42
F0.25451165343052035
sbag1
(g2
g3
Ntp95
Rp96
(dp97
g7
F299253.1843442227
sg8
F8.0155764e+17
sg9
I0
sg10
F0.07301407332433693
sg11
F5.824213417830282e+30
sg12
F2.467015789591182e+28
sg13
F397277.42077414
sg14
g15
(g19
S'\xcd\xd5\xd9W\x91\xe2\xeb?'
p98
tp99
Rp100
sg25
g1
(g26
g3
Ntp101
Rp102
(dp103
g30
F1263278436129.3113
sg31
(lp104
F4.0078431545402955
aF0.15752708071508648
aF4.044582467439817
aF6.167962843958773
aF6.167156201288925
aF5.852402792886648
aF2.9411685132107896
aF3.4569038142930637
aF0.5504831939057536
aF0.22071117225333572
asg33
F2017626973206.9705
sg34
F0.030126987561003744
sg35
F-1194961626123.6282
sg36
(lp105
I0
aI1
aI0
aI2
aI0
aI0
aI2
aI2
aI1
aI0
asg11
F5.824213417830282e+30
sg38
F1200968436432.7205
sg39
F1260471223182.3018
sg40
F452495378.94917136
sg41
F-171604210051.74228
sg42
F55120570579.96436
sg43
F-1259265431578.9136
sg44
F2.467015789591182e+28
sg45
F6371000.0
sg46
F0.2537313432835821
sg47
F4.756133060192939
sg48
F-362500222972.5946
sbsg49
F0.0
sg50
F1.0
sg42
F0.12580451657847766
sbag1
(g2
g3
Ntp106
Rp107
(dp108
g7
F635828.9423975507
sg8
F9.11400724e+17
sg9
I0
sg10
F0.07339741253858588
sg11
F6.890739816787572e+30
sg12
F4.443978294843025e+28
sg13
F336564.6458891446
sg14
g15
(g19
S'\xcb\xc4\xc82%\x1e\xed?'
p109
tp110
Rp111
sg25
g1
(g26
g3
Ntp112
Rp113
(dp114
g30
F2469408131148.7495
sg31
(lp115
F5.1082968978941565
aF3.0965657780520393
aF4.670911687360303
aF4.565752925185593
aF5.63020349148217
aF3.833565490458351
aF0.9513709322377313
aF1.6017950363965532
aF0.8902460265028075
aF0.9485674911096866
asg33
F2707951459346.657
sg34
F0.055843039604393956
sg35
F1192148560228.6206
sg36
(lp116
I0
aI2
aI2
aI2
aI2
aI1
aI2
aI2
aI2
aI1
asg11
F6.890739816787572e+30
sg38
F1611875868658.7244
sg39
F2568458037030.0137
sg40
F1136947861.3549356
sg41
F-2272927794808.1387
sg42
F-1911619071158.8547
sg43
F1715426831656.1416
sg44
F4.443978294843025e+28
sg45
F6371000.0
sg46
F0.2537313432835821
sg47
F2.4102332960216137
sg48
F97763684042.25891
sbsg49
F0.0
sg50
F1.0
sg42
F0.10657880453156246
sbag1
(g2
g3
Ntp117
Rp118
(dp119
g7
F750.7667671404823
sg8
F1.83712666e+17
sg9
I0
sg10
F0.06774770185657943
sg11
F2.1136583182855023e+30
sg12
F4.881709468327845e+26
sg13
F647288.9965004933
sg14
g15
(g19
S'\xc8\x91\x19\x058\xa2\xe2?'
p120
tp121
Rp122
sg25
g1
(g26
g3
Ntp123
Rp124
(dp125
g30
F200469856417.0604
sg31
(lp126
F0.15966441570526943
aF4.786063395261254
aF5.890603159496093
aF0.4297043826916484
aF2.3577254270071535
aF1.7421048294259875
aF4.251298413735319
aF5.567911284461257
aF6.198806630770107
aF2.7073117474092903
asg33
F283818614240.664
sg34
F0.12495674777705607
sg35
F-119323985224.3881
sg36
(lp127
I0
aI0
aI0
aI1
aI1
aI1
aI2
aI2
aI1
aI2
asg11
F2.1136583182855023e+30
sg38
F168939651333.72858
sg39
F214382648961.31116
sg40
F47483245.08672992
sg41
F-29618338407.86728
sg42
F-136390927558.98227
sg43
F165400831483.0044
sg44
F4.881709468327845e+26
sg45
F6371000.0
sg46
F0.2537313432835821
sg47
F8.543548670527638
sg48
F175625911402.03613
sbsg49
F0.923923923923924
sg50
F1.0
sg42
F0.20497484889182288
sbag1
(g2
g3
Ntp128
Rp129
(dp130
g7
F5234497.557582201
sg8
F6.46689816e+17
sg9
I0
sg10
F0.06379555689692025
sg11
F3.3062431007599333e+30
sg12
F2.922617154640894e+27
sg13
F931226.1146489283
sg14
g15
(g19
S'\x90\x1e0\xe9\x03\xb1\xaf?'
p131
tp132
Rp133
sg25
g1
(g26
g3
Ntp134
Rp135
(dp136
g30
F602214366599.9031
sg31
(lp137
F2.961230998426856
aF4.139545734525518
aF5.3944596014886015
aF2.6681872634661556
aF3.8808690978399114
aF0.38775217508119203
aF1.9596652446095502
aF6.27985854797099
aF1.2918448580453858
aF4.993556643286894
asg33
F694449828915.9359
sg34
F0.14516730981123957
sg35
F462554989792.8238
sg36
(lp138
I2
aI1
aI1
aI1
aI2
aI2
aI1
aI2
aI0
aI2
asg11
F3.3062431007599333e+30
sg38
F413362993402.34283
sg39
F521095663159.71564
sg40
F197671219.08907098
sg41
F226197491837.8623
sg42
F471372723418.1787
sg43
F222145100736.41748
sg44
F2.922617154640894e+27
sg45
F6371000.0
sg46
F0.25373134328358204
sg47
F6.723588119424082
sg48
F80114082831.2026
sbsg49
F0.0
sg50
F1.0
sg42
F0.2948882696388273
sbag1
(g2
g3
Ntp139
Rp140
(dp141
g7
F180113.7456651745
sg8
F4.16350776e+17
sg9
I0
sg10
F0.06599770513015532
sg11
F2.745584302295138e+30
sg12
F1.3898627936599474e+27
sg13
F869397.7325470382
sg14
g15
(g19
S'I\x883R\xe1\xa4\xc2?'
p142
tp143
Rp144
sg25
g1
(g26
g3
Ntp145
Rp146
(dp147
g30
F349978144049.9746
sg31
(lp148
F2.737554367771616
aF3.0792029436950514
aF6.015303631837614
aF1.2486157107898408
aF0.7826302600065743
aF0.8482827110406703
aF2.276384284687804
aF5.871641381213204
aF3.2973469666048025
aF4.822736010380859
asg33
F478895631324.26685
sg34
F0.009005825489777044
sg35
F-119461401729.00388
sg36
(lp149
I1
aI0
aI2
aI2
aI2
aI0
aI0
aI2
aI2
aI2
asg11
F2.745584302295138e+30
sg38
F285056923407.3017
sg39
F347118553605.2776
sg40
F96101055.65534282
sg41
F-50275063724.87943
sg42
F314374901897.88617
sg43
F-147172386383.16095
sg44
F1.3898627936599474e+27
sg45
F6371000.0
sg46
F0.25373134328358204
sg47
F12.128531883932949
sg48
F-322013480651.697
sbsg49
F0.0
sg50
F1.0
sg42
F0.2753092819732288
sbag1
(g2
g3
Ntp150
Rp151
(dp152
g7
F105.89575861028906
sg8
F1.12645172e+17
sg9
I0
sg10
F0.07131563828067528
sg11
F1.6437462805727173e+30
sg12
F1.785549642480068e+26
sg13
F656253.612711719
sg14
g15
(g19
S"'\x91}\xec\xb5\xee\xe1?"
p153
tp154
Rp155
sg25
g1
(g26
g3
Ntp156
Rp157
(dp158
g30
F162950561535.6426
sg31
(lp159
F2.34084601422616
aF3.9119809512325947
aF5.086945388492306
aF0.2294677660067172
aF1.7745510288451187
aF3.5895270297426696
aF4.6111417083129
aF2.3735258647443347
aF5.616985465067027
aF3.470461332759299
asg33
F171648840963.3839
sg34
F0.03556287472530233
sg35
F-109384586275.60217
sg36
(lp160
I0
aI0
aI2
aI2
aI1
aI1
aI0
aI0
aI0
aI0
asg11
F1.6437462805727173e+30
sg38
F102171929144.87138
sg39
F165291130532.66632
sg40
F39459407.95500141
sg41
F-111890095247.9462
sg42
F-71609945330.59299
sg43
F148973734471.94113
sg44
F1.785549642480068e+26
sg45
F6371000.0
sg46
F0.25373134328358204
sg47
F2.018875640520093
sg48
F53261399751.4879
sbsg49
F0.985985985985986
sg50
F0.10156694976695796
sg42
F0.2078136440253777
sbag1
(g2
g3
Ntp161
Rp162
(dp163
g7
F87315.71090053902
sg8
F5.9922405e+17
sg9
I0
sg10
F0.06412810639882721
sg11
F3.852430239015692e+30
sg12
F5.387309533482637e+27
sg13
F635548.0057332912
sg14
g15
(g19
S'\x07M\x97\x08D>\xe3?'
p164
tp165
Rp166
sg25
g1
(g26
g3
Ntp167
Rp168
(dp169
g30
F831092839743.086
sg31
(lp170
F5.8939520753400245
aF4.2129807436811015
aF5.726359679774675
aF0.31016172946911247
aF3.1935921549212862
aF0.13878464881140662
aF3.1897211650091575
aF0.12968538210887073
aF1.5285438597559649
aF5.038152786273309
asg33
F942846243862.6002
sg34
F0.007809449721001226
sg35
F365578776390.79626
sg36
(lp171
I0
aI0
aI0
aI0
aI1
aI1
aI2
aI0
aI2
aI1
asg11
F3.852430239015692e+30
sg38
F561218002299.1669
sg39
F825876717468.9906
sg40
F296886933.3524234
sg41
F692198472580.3201
sg42
F661434054890.0657
sg43
F-494547614986.7073
sg44
F5.387309533482637e+27
sg45
F6371000.0
sg46
F0.25373134328358204
sg47
F5.641164251480289
sg48
F263221931585.1832
sbsg49
F0.0
sg50
F1.0
sg42
F0.20125686848220886
sbag1
(g2
g3
Ntp172
Rp173
(dp174
g7
F94573.84334884955
sg8
F5.5503561600000006e+17
sg9
I0
sg10
F0.04623477050707987
sg11
F4.4320914116005446e+30
sg12
F9.483571636620215e+27
sg13
F443690.3436336016
sg14
g15
(g19
S'S\xc8#\xec\xef\xc2\xea?'
p175
tp176
Rp177
sg25
g1
(g26
g3
Ntp178
Rp179
(dp180
g30
F1056906218907.5828
sg31
(lp181
F1.1661993999880678
aF4.384927427237882
aF1.1415093093772823
aF5.879136198214931
aF1.5952133855386703
aF1.68318493749946
aF3.958379496360979
aF2.7276514153638662
aF3.2560131709281106
aF6.055014521240678
asg33
F1250952660935.86
sg34
F0.1322492863953734
sg35
F718419415925.5374
sg36
(lp182
I1
aI2
aI2
aI1
aI0
aI0
aI0
aI0
aI1
aI0
asg11
F4.4320914116005446e+30
sg38
F744614679128.4882
sg39
F1196442088814.0461
sg40
F396948796.6747885
sg41
F374761862790.65485
sg42
F-1194872430317.1677
sg43
F-61266199112.25903
sg44
F9.483571636620215e+27
sg45
F6371000.0
sg46
F0.2537313432835821
sg47
F3.1928220496879125
sg48
F880284477259.8268
sbsg49
F0.0
sg50
F1.0
sg42
F0.14050194215064052
sbag1
(g2
g3
Ntp183
Rp184
(dp185
g7
F84451.68829345106
sg8
F5.50875688e+17
sg9
I0
sg10
F0.07296647183892052
sg11
F3.4708415124760634e+30
sg12
F3.5495388105985147e+27
sg13
F719801.4723475706
sg14
g15
(g19
S'"\t\'\xaa]`\xdb?'
p186
tp187
Rp188
sg25
g1
(g26
g3
Ntp189
Rp190
(dp191
g30
F485598042714.5137
sg31
(lp192
F5.661975615963614
aF4.128435509102147
aF4.540608102519716
aF4.601553269110676
aF0.2064773183963908
aF2.4396391652668408
aF2.2531206859016115
aF5.872219242677215
aF5.774867147919941
aF2.1348532833191034
asg33
F765316145024.4973
sg34
F0.039408254357388976
sg35
F279669732887.93866
sg36
(lp193
I2
aI2
aI0
aI0
aI0
aI0
aI0
aI1
aI0
aI2
asg11
F3.4708415124760634e+30
sg38
F455545324419.3437
sg39
F504687624541.0513
sg40
F139695418.83274472
sg41
F231912842868.14188
sg42
F-503542240447.2694
sg43
F33982502118.494102
sg44
F3.5495388105985147e+27
sg45
F6371000.0
sg46
F0.25373134328358204
sg47
F9.357393243000661
sg48
F-350301116447.11414
sbsg49
F0.0
sg50
F1.0
sg42
F0.227937132910064
sbag1
(g2
g3
Ntp194
Rp195
(dp196
g7
F162910.0396291786
sg8
F6.79287234e+17
sg9
I0
sg10
F0.0541878028931145
sg11
F4.693782860830744e+30
sg12
F1.15923618536494e+28
sg13
F491148.2236020565
sg14
g15
(g19
S'\xde\x1c \x1d5|\xe9?'
p197
tp198
Rp199
sg25
g1
(g26
g3
Ntp200
Rp201
(dp202
g30
F1189747578580.417
sg31
(lp203
F0.813154242898912
aF4.3591871934202056
aF1.9782935885163013
aF1.368895597224966
aF3.1483896133053535
aF3.001927094848141
aF5.704121462207482
aF4.9092667423614476
aF5.493296568600926
aF0.8085378932030818
asg33
F1383059535506.698
sg34
F0.1021592595635705
sg35
F913739211589.4519
sg36
(lp204
I1
aI1
aI1
aI2
aI2
aI0
aI0
aI0
aI2
aI0
asg11
F4.693782860830744e+30
sg38
F823249723515.8916
sg39
F1211457376963.0227
sg40
F460685890.51859677
sg41
F172176895669.87738
sg42
F-334053086944.6782
sg43
F-1164490236670.4749
sg44
F1.15923618536494e+28
sg45
F6371000.0
sg46
F0.2537313432835821
sg47
F4.4330245114198155
sg48
F-776572434483.4153
sbsg49
F0.0
sg50
F1.0
sg42
F0.1555302708073179
sbag1
(g2
g3
Ntp205
Rp206
(dp207
g7
F143492.1534576312
sg8
F6.22680736e+17
sg9
I0
sg10
F0.07232775502581784
sg11
F5.585548818557328e+30
sg12
F2.130943471321829e+28
sg13
F332066.1101382776
sg14
g15
(g19
S'\xc8\xbaC\xb066\xed?'
p208
tp209
Rp210
sg25
g1
(g26
g3
Ntp211
Rp212
(dp213
g30
F1526203348062.5652
sg31
(lp214
F5.565030918684484
aF0.05291720371447928
aF4.521169821324961
aF2.0966183351832766
aF3.8439841969377655
aF0.08549843081853564
aF0.8580044860103045
aF3.4706300457446315
aF4.377139233527317
aF5.220668394254552
asg33
F1875170988514.0215
sg34
F0.2085200893521928
sg35
F-484929178649.3019
sg36
(lp215
I2
aI1
aI2
aI0
aI0
aI2
aI2
aI2
aI2
aI2
asg11
F5.585548818557328e+30
sg38
F1116173207448.8225
sg39
F1715839364783.2441
sg40
F613578087.2555418
sg41
F433736466999.84827
sg42
F-1227681692597.552
sg43
F-1198708633238.5264
sg44
F2.130943471321829e+28
sg45
F6371000.0
sg46
F0.25373134328358204
sg47
F3.9150505771389428
sg48
F-1587709386074.4067
sbsg49
F0.0
sg50
F1.0
sg42
F0.10515426821045457
sbag1
(g2
g3
Ntp216
Rp217
(dp218
g7
F359125.49788625416
sg8
F7.53233966e+17
sg9
I0
sg10
F0.04118222793532244
sg11
F4.2415344119564604e+30
sg12
F8.131523643443931e+27
sg13
F650262.9656885739
sg14
g15
(g19
S'\x03E\x14\xb9!I\xe2?'
p219
tp220
Rp221
sg25
g1
(g26
g3
Ntp222
Rp223
(dp224
g30
F1002052391366.1774
sg31
(lp225
F4.907911629270107
aF4.278877594802259
aF4.327470986940699
aF1.2584371753510852
aF3.2949431868440087
aF2.783525630154558
aF2.7566748661738565
aF0.824975357272766
aF2.422522315339608
aF5.087164842320579
asg33
F1158352859911.6643
sg34
F0.014353995792400587
sg35
F550561966875.8904
sg36
(lp226
I2
aI1
aI0
aI0
aI2
aI1
aI2
aI0
aI1
aI1
asg11
F4.2415344119564604e+30
sg38
F689495749947.4192
sg39
F998323529239.551
sg40
F374591837.84939426
sg41
F-777445957300.6008
sg42
F245395227461.4905
sg43
F-967693676414.4095
sg44
F8.131523643443931e+27
sg45
F6371000.0
sg46
F0.2537313432835821
sg47
F4.960741454837666
sg48
F-298511596324.18976
sbsg49
F0.0
sg50
F1.0
sg42
F0.20591660580138174
sbag1
(g2
g3
Ntp227
Rp228
(dp229
g7
F84428.47177912755
sg8
F3.43385392e+17
sg9
I0
sg10
F0.06516758679162184
sg11
F2.4936458989527588e+30
sg12
F9.457403728755115e+26
sg13
F869242.476778455
sg14
g144
sg25
g1
(g26
g3
Ntp230
Rp231
(dp232
g30
F355444170353.3374
sg31
(lp233
F3.5517572805498854
aF2.2665871918389695
aF0.28267962738772534
aF0.5442958415414045
aF4.647109906178528
aF1.2172863207582225
aF5.551919098504629
aF3.8762318365615798
aF3.8854489656587536
aF1.4906755039112416
asg33
F395039820502.8344
sg34
F0.047547474978931414
sg35
F74425637051.33647
sg36
(lp234
I2
aI1
aI2
aI0
aI0
aI1
aI2
aI2
aI1
aI1
asg11
F2.4936458989527588e+30
sg38
F235142750299.30618
sg39
F351444344248.708
sg40
F103210496.29078671
sg41
F-279645878390.69666
sg42
F67222314089.91411
sg43
F-344955486393.2466
sg44
F9.457403728755115e+26
sg45
F6371000.0
sg46
F0.2537313432835821
sg47
F11.188034665831589
sg48
F199429522270.4074
sbsg49
F0.001001001001001001
sg50
F1.0
sg42
F0.27526011764651076
sbag1
(g2
g3
Ntp235
Rp236
(dp237
g7
F15578306.312607933
sg8
F7.95360952e+17
sg9
I0
sg10
F0.055405123223214274
sg11
F3.649511891825769e+30
sg12
F4.338822954333119e+27
sg13
F939990.3396921933
sg14
g15
(g19
S'\xe02\xc4B3\x8a\xad?'
p238
tp239
Rp240
sg25
g1
(g26
g3
Ntp241
Rp242
(dp243
g30
F798680327081.2778
sg31
(lp244
F0.41540762444608825
aF3.1711082669631367
aF5.918325313121724
aF1.695087540060228
aF0.041354865103902336
aF4.899144017859082
aF2.366496307599888
aF3.361364894967433
aF4.44460906666804
aF5.780229844048781
asg33
F846137368029.1722
sg34
F0.05377356339161821
sg35
F37028902569.10388
sg36
(lp245
I1
aI1
aI2
aI2
aI1
aI0
aI2
aI0
aI0
aI1
asg11
F3.649511891825769e+30
sg38
F503653195255.4597
sg39
F766738171717.3473
sg40
F287359959.26610774
sg41
F-629513143821.1406
sg42
F551064362488.8505
sg43
F-533118647547.82043
sg44
F4.338822954333119e+27
sg45
F6371000.0
sg46
F0.25373134328358204
sg47
F5.514337925459664
sg48
F-436153053525.26465
sbsg49
F0.0
sg50
F1.0
sg42
F0.2976636075691946
sbag1
(g2
g3
Ntp246
Rp247
(dp248
g7
F708237508.4974174
sg8
F4.38850802e+17
sg9
I0
sg10
F0.0638374520841536
sg11
F2.589016290687157e+30
sg12
F1.0989348067990512e+27
sg13
F1030566.5002493963
sg14
g15
(g19
S'CSyL@"b?'
p249
tp250
Rp251
sg25
g1
(g26
g3
Ntp252
Rp253
(dp254
g30
F300498865390.3861
sg31
(lp255
F2.0522568640949714
aF3.8407816739876295
aF2.1661997195098177
aF3.402252845488808
aF3.6677393453473273
aF0.7639370729916578
aF5.651697601591591
aF1.06953363583298
aF3.963232429163174
aF6.174151117187285
asg33
F425834530710.82605
sg34
F0.09229233617938333
sg35
F205131284821.11935
sg36
(lp256
I1
aI1
aI1
aI2
aI2
aI0
aI0
aI1
aI2
aI2
asg11
F2.589016290687157e+30
sg38
F253472934946.92026
sg39
F299533698805.0857
sg40
F78737392.34787525
sg41
F-118596171938.86588
sg42
F-17276031240.887962
sg43
F299035073970.2948
sg44
F1.0989348067990512e+27
sg45
F6371000.0
sg46
F0.2537313432835821
sg47
F14.194875385966721
sg48
F183239026162.38596
sbsg49
F0.0
sg50
F1.0
sg42
F0.32634605841230885
sbag1
(g2
g3
Ntp257
Rp258
(dp259
g7
F3887814.9503055406
sg8
F8.38586554e+17
sg9
I0
sg10
F0.046098559353093024
sg11
F3.915027194775239e+30
sg12
F5.746083452279372e+27
sg13
F861205.9453831345
sg14
g15
(g19
S'\x1dU\x06\xba\xf7\xa9\xc3?'
p260
tp261
Rp262
sg25
g1
(g26
g3
Ntp263
Rp264
(dp265
g30
F787373456920.7216
sg31
(lp266
F2.9510238348813935
aF4.694677938226813
aF5.404542793523008
aF5.795617730804042
aF0.1857450173623386
aF2.1175628871430274
aF1.5103048455010266
aF5.079030745108268
aF1.1428383374834372
aF5.515158120265553
asg33
F973735212228.3926
sg34
F0.07513588338239871
sg35
F-690422030552.6045
sg36
(lp267
I2
aI2
aI0
aI2
aI0
aI1
aI0
aI1
aI1
aI2
asg11
F3.915027194775239e+30
sg38
F579604292993.0908
sg39
F830115488905.207
sg40
F271573836.8331451
sg41
F-22899181722.280792
sg42
F-628023106124.734
sg43
F-542843166203.4366
sg44
F5.746083452279372e+27
sg45
F6371000.0
sg46
F0.2537313432835821
sg47
F3.854369249532308
sg48
F460309430844.51263
sbsg49
F0.0
sg50
F1.0
sg42
F0.2727152160379926
sbag1
(g2
g3
Ntp268
Rp269
(dp270
g7
F1004933.5985733666
sg8
F8.5084106e+17
sg9
I0
sg10
F0.03406957944805955
sg11
F6.537454949587471e+30
sg12
F3.696340145217052e+28
sg13
F344514.54713240743
sg14
g15
(g19
S'UJKG\x9c\xf1\xec?'
p271
tp272
Rp273
sg25
g1
(g26
g3
Ntp274
Rp275
(dp276
g30
F2115807089064.1611
sg31
(lp277
F3.411567544532232
aF1.7819834908307906
aF1.034248077671171
aF1.946885756012151
aF5.909908385527972
aF1.2699670928688191
aF2.912878202944598
aF1.209787762128164
aF2.976793613875896
aF2.915937127305874
asg33
F2469681083373.805
sg34
F0.01847396750752487
sg35
F1965753585350.2305
sg36
(lp278
I0
aI2
aI0
aI0
aI0
aI2
aI1
aI0
aI2
aI2
asg11
F6.537454949587471e+30
sg38
F1470048263912.9795
sg39
F2149100590285.078
sg40
F925750406.9328139
sg41
F-397893295473.35095
sg42
F-1841272031417.61
sg43
F1108309818364.4038
sg44
F3.696340145217052e+28
sg45
F6371000.0
sg46
F0.25373134328358204
sg47
F2.599758056686602
sg48
F772092685021.5205
sbsg49
F0.0
sg50
F1.0
sg42
F0.1090962732585957
sbag1
(g2
g3
Ntp279
Rp280
(dp281
g7
F50002.48499969252
sg8
F3.25286002e+17
sg9
I0
sg10
F0.06800015423229659
sg11
F2.4549055239048067e+30
sg12
F8.883250911000669e+26
sg13
F849619.5546566859
sg14
g15
(g19
S'\xd3\xbd\\\xe6\x15\xc6\xc5?'
p282
tp283
Rp284
sg25
g1
(g26
g3
Ntp285
Rp286
(dp287
g30
F293614894427.4592
sg31
(lp288
F0.07917528609174283
aF0.531337644680177
aF4.017581917391087
aF1.280035778938315
aF4.8633403539376445
aF3.3649360431438247
aF4.981001937294046
aF4.826883797221005
aF0.7202969157006258
aF0.43740296449988764
asg33
F382860775999.25476
sg34
F0.06514259231288361
sg35
F184151376075.5622
sg36
(lp289
I2
aI2
aI2
aI2
aI0
aI0
aI2
aI1
aI1
aI1
asg11
F2.4549055239048067e+30
sg38
F227893319047.17545
sg39
F309239523409.79047
sg40
F78096918.23812374
sg41
F148186182096.42615
sg42
F-258979571149.05225
sg43
F168993090291.19305
sg44
F8.883250911000669e+26
sg45
F6371000.0
sg46
F0.2537313432835821
sg47
F15.129808427729747
sg48
F-199394606155.42255
sbsg49
F0.024024024024024024
sg50
F1.0
sg42
F0.2690461923079505
sbag1
(g2
g3
Ntp290
Rp291
(dp292
g7
F50427.74607463886
sg8
F4.39350734e+17
sg9
I0
sg10
F0.06625232066110827
sg11
F3.0222805979243137e+30
sg12
F2.0406660020820925e+27
sg13
F757130.0458928257
sg14
g15
(g19
S'\xc2\x8aH\x8d\xca{\xd6?'
p293
tp294
Rp295
sg25
g1
(g26
g3
Ntp296
Rp297
(dp298
g30
F484794832212.07666
sg31
(lp299
F6.267119979943169
aF0.8373295842136538
aF6.07362145392233
aF0.05935294607563147
aF6.07643182859194
aF5.265937390029349
aF6.19457477293848
aF0.08726912707362282
aF1.2662476057304135
aF0.8899548936777829
asg33
F580284373052.3297
sg34
F0.0013345539651485369
sg35
F422412912404.75323
sg36
(lp300
I2
aI1
aI0
aI2
aI1
aI1
aI0
aI1
aI2
aI0
asg11
F3.0222805979243137e+30
sg38
F345407364912.101
sg39
F484227410673.26294
sg40
F149332296.9798186
sg41
F232818085092.41016
sg42
F424529930891.7725
sg43
F232917416747.5667
sg44
F2.0406660020820925e+27
sg45
F6371000.0
sg46
F0.2537313432835821
sg47
F6.784989775455746
sg48
F-42886547249.344315
sbsg49
F0.0
sg50
F1.0
sg42
F0.23975784786606147
sbag1
(g2
g3
Ntp301
Rp302
(dp303
g7
F37072.44575849135
sg8
F1.86499324e+17
sg9
I0
sg10
F0.07099780439672454
sg11
F1.7710661523079522e+30
sg12
F2.4064227744451532e+26
sg13
F935914.9545376404
sg14
g240
sg25
g1
(g26
g3
Ntp304
Rp305
(dp306
g30
F142157012715.85175
sg31
(lp307
F4.8535711657009
aF5.912886253893009
aF3.710432593682534
aF0.05261967180696555
aF0.08549300429638802
aF1.2785159628052516
aF4.634228314165564
aF4.278656502556165
aF4.450499106795033
aF2.0801650249879993
asg33
F199269520265.4756
sg34
F0.12098893133732318
sg35
F65639006346.7762
sg36
(lp308
I0
aI0
aI2
aI2
aI2
aI0
aI2
aI2
aI1
aI1
asg11
F1.7710661523079522e+30
sg38
F118612809681.8307
sg39
F150634357512.66757
sg40
F30975562.787206315
sg41
F-95759896833.88269
sg42
F-87266535348.31993
sg43
F122781356367.95425
sg44
F2.4064227744451532e+26
sg45
F6371000.0
sg46
F0.2537313432835821
sg47
F33.604625517588396
sg48
F-95980584846.23947
sbsg49
F0.03403403403403404
sg50
F1.0
sg42
F0.2963730689369195
sbag1
(g2
g3
Ntp309
Rp310
(dp311
g7
F96.2531388729842
sg8
F9.9248846e+16
sg9
I0
sg10
F0.07325188282669647
sg11
F1.4633047526005022e+30
sg12
F1.1214293780357381e+26
sg13
F729599.6055450455
sg14
g15
(g19
S'Y|+\x12\xf3\xea\xd9?'
p312
tp313
Rp314
sg25
g1
(g26
g3
Ntp315
Rp316
(dp317
g30
F116549865319.20541
sg31
(lp318
F2.320416981350798
aF5.319586327860551
aF3.080298832855458
aF5.700668024867945
aF1.0990404459112555
aF2.6830399982168798
aF2.2507658757974283
aF6.240606728909362
aF0.8490175620005294
aF3.176568144750412
asg33
F136031934838.91266
sg34
F0.1212355437026442
sg35
F-27876000284.3029
sg36
(lp319
I1
aI1
aI0
aI1
aI0
aI0
aI1
aI1
aI0
aI2
asg11
F1.4633047526005022e+30
sg38
F80971389785.06706
sg39
F112252579686.55226
sg40
F25297897.974641822
sg41
F92566765608.55438
sg42
F21315770798.69137
sg43
F-110210160881.57854
sg44
F1.1214293780357381e+26
sg45
F6371000.0
sg46
F0.25373134328358204
sg47
F4.903440252630662
sg48
F57052293198.48829
sbsg49
F0.8958958958958959
sg50
F0.08483182991279993
sg42
F0.2310398750892644
sbag1
(g2
g3
Ntp320
Rp321
(dp322
g7
F1578373.7992196525
sg8
F4.30885836e+17
sg9
I0
sg10
F0.06735782742248966
sg11
F2.673836103909227e+30
sg12
F1.2501782215557012e+27
sg13
F948683.490936601
sg14
g15
(g19
S'r!\xc3\xe5\xe1y\xa8?'
p323
tp324
Rp325
sg25
g1
(g26
g3
Ntp326
Rp327
(dp328
g30
F323541382073.393
sg31
(lp329
F1.6831494168309922
aF3.706369947515836
aF3.909806288861714
aF5.114130412588241
aF5.7975485775348
aF5.379257836658491
aF2.1511069526446653
aF3.23300207268394
aF1.859904068365262
aF4.33989301471008
asg33
F454193458742.0742
sg34
F0.006910431374216261
sg35
F220089155447.92102
sg36
(lp330
I2
aI2
aI1
aI0
aI1
aI0
aI2
aI1
aI0
aI0
asg11
F2.673836103909227e+30
sg38
F270353249251.23465
sg39
F322236293921.6514
sg40
F86558859.84352839
sg41
F-233175575074.82452
sg42
F186621886067.23697
sg43
F262694691155.09006
sg44
F1.2501782215557012e+27
sg45
F6371000.0
sg46
F0.2537313432835821
sg47
F13.519486109167584
sg48
F-32033481907.320717
sbsg49
F0.0
sg50
F1.0
sg42
F0.3004164387965903
sbag1
(g2
g3
Ntp331
Rp332
(dp333
g7
F3918.531273804624
sg8
F2.7899908800000003e+17
sg9
I0
sg10
F0.07341908560934357
sg11
F2.5688265612989153e+30
sg12
F1.0650547389580368e+27
sg13
F665521.2214875461
sg14
g15
(g19
S'\xa3\x05\xb9\x1e4\x93\xe1?'
p334
tp335
Rp336
sg25
g1
(g26
g3
Ntp337
Rp338
(dp339
g30
F386176504527.8043
sg31
(lp340
F0.879705498860967
aF3.639034858103428
aF3.005189934928207
aF2.1611253597292692
aF0.8733035891473448
aF2.603521917638875
aF5.660786285352256
aF1.750116530270928
aF4.869562998926483
aF5.77329296515903
asg33
F419218920437.11633
sg34
F0.011972138866911218
sg35
F88299118264.65494
sg36
(lp341
I2
aI0
aI2
aI0
aI0
aI0
aI2
aI0
aI0
aI2
asg11
F2.5688265612989153e+30
sg38
F249535071688.7597
sg39
F390422746796.77466
sg40
F115158379.15051545
sg41
F-380081522092.1279
sg42
F-359300356406.50385
sg43
F152752005232.32986
sg44
F1.0650547389580368e+27
sg45
F6371000.0
sg46
F0.25373134328358216
sg47
F9.022790973306869
sg48
F13085239552.798035
sbsg49
F0.25425425425425424
sg50
F1.0
sg42
F0.2107483868043896
sbag1
(g2
g3
Ntp342
Rp343
(dp344
g7
F1042849.0977814579
sg8
F9.21470342e+17
sg9
I0
sg10
F0.072535928552623
sg11
F4.3169810044406857e+30
sg12
F8.649120128405905e+27
sg13
F771330.4679080087
sg14
g15
(g19
S'\x8c\xf4\xf2H\tg\xd4?'
p345
tp346
Rp347
sg25
g1
(g26
g3
Ntp348
Rp349
(dp350
g30
F1012423311845.8134
sg31
(lp351
F4.129443360972494
aF0.8054070598446929
aF6.159434340058081
aF4.71942725590027
aF4.818717252752865
aF1.7387162830476062
aF3.3577428081415195
aF3.2107507446999155
aF5.5854845570963185
aF1.0727724809618702
asg33
F1194650516657.534
sg34
F0.05156404337665736
sg35
F67571752920.313354
sg36
(lp352
I0
aI0
aI0
aI0
aI0
aI0
aI0
aI1
aI1
aI0
asg11
F4.3169810044406857e+30
sg38
F711101498010.4369
sg39
F1060218574919.6853
sg40
F377083301.0675958
sg41
F-828782743036.7825
sg42
F-979115330506.6707
sg43
F-406689803377.88336
sg44
F8.649120128405905e+27
sg45
F6371000.0
sg46
F0.2537313432835821
sg47
F3.5352737688561917
sg48
F657736003010.6539
sbsg49
F0.0
sg50
F1.0
sg42
F0.24425464817086942
sbag1
(g2
g3
Ntp353
Rp354
(dp355
g7
F1712277.639723056
sg8
F5.4398156400000006e+17
sg9
I0
sg10
F0.061767976590745496
sg11
F3.0530560900031375e+30
sg12
F2.1250635840219883e+27
sg13
F918635.6727767427
sg14
g15
(g19
S'\xbbc\xbf6*2\xb4?'
p356
tp357
Rp358
sg25
g1
(g26
g3
Ntp359
Rp360
(dp361
g30
F570190685671.1353
sg31
(lp362
F2.4274798418958397
aF2.1967690522929915
aF3.5213741470977817
aF4.217967122003155
aF3.7147728748009374
aF1.7673761997928803
aF1.1150453545751604
aF2.3852609517480725
aF3.8475607586389984
aF1.8949679028541853
asg33
F592162464533.6461
sg34
F0.02429663263934321
sg35
F-70364986381.07321
sg36
(lp363
I2
aI1
aI0
aI1
aI1
aI0
aI2
aI0
aI2
aI1
asg11
F3.0530560900031375e+30
sg38
F352477657460.50366
sg39
F562681718020.7156
sg40
F189516466.60675228
sg41
F295812481524.77655
sg42
F295200127781.8867
sg43
F479027765742.55255
sg44
F2.1250635840219883e+27
sg45
F6371000.0
sg46
F0.25373134328358204
sg47
F7.301700320285649
sg48
F-473449532960.47205
sbsg49
F0.0
sg50
F1.0
sg42
F0.29090129637930184
sbag1
(g2
g3
Ntp364
Rp365
(dp366
g7
F679776.1461866234
sg8
F1.5382167e+17
sg9
I0
sg10
F0.072722024999554
sg11
F1.546802207232398e+30
sg12
F1.400141502840182e+26
sg13
F1011990.9921316649
sg14
g15
(g19
S"#\xc3HR,'\x81?"
p367
tp368
Rp369
sg25
g1
(g26
g3
Ntp370
Rp371
(dp372
g30
F121101812833.86658
sg31
(lp373
F1.1680087375932788
aF4.034246538644176
aF6.241411697081811
aF0.9674158412973508
aF4.7405789945057375
aF5.485541960040243
aF3.9599669222088827
aF5.212507964916317
aF4.6998139821162885
aF3.647607517581075
asg33
F151999050580.4691
sg34
F0.04097038550635781
sg35
F118129691539.15822
sg36
(lp374
I0
aI1
aI2
aI1
aI0
aI0
aI1
aI0
aI1
aI2
asg11
F1.546802207232398e+30
sg38
F90475625345.5173
sg39
F119991810687.85765
sg40
F26061099.79664928
sg41
F11286913148.219734
sg42
F22131204367.921318
sg43
F117933220194.20978
sg44
F1.400141502840182e+26
sg45
F6371000.0
sg46
F0.25373134328358216
sg47
F39.08440683563146
sg48
F-17776844506.22612
sbsg49
F0.006006006006006006
sg50
F1.0
sg42
F0.32046381417502723
sbag1
(g2
g3
Ntp375
Rp376
(dp377
g7
F5422327.245260017
sg8
F6.3147275e+17
sg9
I0
sg10
F0.05546217474281158
sg11
F3.2593783998951363e+30
sg12
F2.760399430312139e+27
sg13
F935650.6828756231
sg14
g133
sg25
g1
(g26
g3
Ntp378
Rp379
(dp380
g30
F533777884989.8167
sg31
(lp381
F0.20712076832644497
aF0.5535262582206099
aF0.9705046090980473
aF6.105764719860539
aF0.5369705128356308
aF4.504678702235916
aF1.0241182543137568
aF4.469504958260219
aF6.133607131944713
aF2.234491802213648
asg33
F674902248838.4613
sg34
F0.12244655945352154
sg35
F404178132756.43054
sg36
(lp382
I0
aI2
aI2
aI2
aI1
aI0
aI1
aI1
aI0
aI0
asg11
F3.2593783998951363e+30
sg38
F401727529070.5127
sg39
F500074269305.51733
sg40
F166133661.77907714
sg41
F289970784516.67706
sg42
F209892369426.4599
sg43
F453893674860.08606
sg44
F2.760399430312139e+27
sg45
F6371000.0
sg46
F0.2537313432835821
sg47
F7.42084218620521
sg48
F51295769316.33952
sbsg49
F0.0
sg50
F1.0
sg42
F0.29628938291061396
sbag1
(g2
g3
Ntp383
Rp384
(dp385
g7
F201750145.31534263
sg8
F5.62830852e+17
sg9
I0
sg10
F0.07305350056900252
sg11
F2.952125275448435e+30
sg12
F1.857684378620599e+27
sg13
F1016569.3709315764
sg14
g15
(g19
S'\xa5\x97\xaa3\xe7zz?'
p386
tp387
Rp388
sg25
g1
(g26
g3
Ntp389
Rp390
(dp391
g30
F364328764050.4887
sg31
(lp392
F5.444373051731256
aF6.128529452849816
aF4.305589459556714
aF2.132790238289162
aF5.750818256403792
aF2.1678749036893668
aF3.7818612650940704
aF5.734871064872486
aF5.59857498671001
aF1.211004971113441
asg33
F553657102106.2991
sg34
F0.08771293009579297
sg35
F32509648850.84796
sg36
(lp393
I2
aI0
aI0
aI0
aI0
aI0
aI0
aI0
aI1
aI0
asg11
F2.952125275448435e+30
sg38
F329557798872.79706
sg39
F341802799713.3773
sg40
F98436681.31003213
sg41
F-237303928449.9718
sg42
F224858293978.6165
sg43
F-257425526164.22717
sg44
F1.857684378620599e+27
sg45
F6371000.0
sg46
F0.2537313432835821
sg47
F11.713547701054024
sg48
F-243842412565.38684
sbsg49
F0.0
sg50
F1.0
sg42
F0.3219136341283325
sbag1
(g2
g3
Ntp394
Rp395
(dp396
g7
F2292218.1333519174
sg8
F6.30568552e+17
sg9
I0
sg10
F0.06425333611202974
sg11
F7.595416020039331e+30
sg12
F6.248444678751114e+28
sg13
F196377.36681697814
sg14
g15
(g19
S'p\x99\x1e"\xb5\xe4\xda?'
p397
tp398
Rp399
sg25
g1
(g26
g3
Ntp400
Rp401
(dp402
g30
F2583223812690.7744
sg31
(lp403
F6.030794093122153
aF1.98792242299093
aF1.2626504345340936
aF2.0732945255906907
aF1.2656965797681712
aF0.12851964588859105
aF5.589189578816455
aF0.570631881976578
aF4.80215526682063
aF5.321732401133371
asg33
F3211004212046.92
sg34
F0.18894943024461533
sg35
F-2861938003537.866
sg36
(lp404
I0
aI0
aI2
aI2
aI2
aI1
aI1
aI1
aI0
aI0
asg11
F7.595416020039331e+30
sg38
F1911312030980.3098
sg39
F2915110692859.357
sg40
F1158647781.3376045
sg41
F-552358248585.4036
sg42
F-2244583880280.152
sg43
F1860030525558.5076
sg44
F6.248444678751114e+28
sg45
F6371000.0
sg46
F0.25373134328358204
sg47
F2.4496098691977437
sg48
F-45624343812.447754
sbsg49
F0.0
sg50
F1.0
sg42
F0.06218616615870975
sbag1
(g2
g3
Ntp405
Rp406
(dp407
g7
F385485621.4845511
sg8
F6.22304244e+17
sg9
I0
sg10
F0.05713423782604403
sg11
F3.1040934194723733e+30
sg12
F2.2707636270375155e+27
sg13
F1016627.5801994309
sg14
g388
sg25
g1
(g26
g3
Ntp408
Rp409
(dp410
g30
F430670480597.765
sg31
(lp411
F2.6406064205182416
aF0.39644457115892157
aF3.7184350524795104
aF3.386276612425014
aF4.404936846525322
aF1.1693858454211574
aF5.010099153699948
aF5.510203509582778
aF6.201535611880374
aF1.4860892598637272
asg33
F612126068700.5198
sg34
F0.017792257740824942
sg35
F68209880422.802505
sg36
(lp412
I2
aI2
aI2
aI2
aI0
aI1
aI2
aI2
aI1
aI0
asg11
F3.1040934194723733e+30
sg38
F364360755178.88086
sg39
F438285135659.0942
sg40
F123377063.73882669
sg41
F432931080310.4562
sg42
F-435638362023.5016
sg43
F48094466138.95593
sg44
F2.2707636270375155e+27
sg45
F6371000.0
sg46
F0.25373134328358204
sg47
F9.314823253808168
sg48
F3457174227.456299
sbsg49
F0.0
sg50
F1.0
sg42
F0.32193206706315314
sbag1
(g2
g3
Ntp413
Rp414
(dp415
g7
F2343.435873414981
sg8
F2.48990824e+17
sg9
I0
sg10
F0.06396257807511915
sg11
F2.6183927097836006e+30
sg12
F1.1496666387573863e+27
sg13
F571666.1368849699
sg14
g15
(g19
S'\x16\x08\x1e\xbc\x88\x93\xe6?'
p416
tp417
Rp418
sg25
g1
(g26
g3
Ntp419
Rp420
(dp421
g30
F360566675819.8134
sg31
(lp422
F1.5021454895227166
aF3.942236171499144
aF4.946128549497729
aF2.5916709037627457
aF3.5895960440750816
aF6.004320223603031
aF0.499980942002326
aF1.1083095602567323
aF2.567982732472346
aF5.861338886428988
asg33
F435552865448.2847
sg34
F0.18559935653164783
sg35
F-320794206851.6127
sg36
(lp423
I2
aI1
aI2
aI1
aI2
aI1
aI0
aI2
aI2
aI1
asg11
F2.6183927097836006e+30
sg38
F259257658004.93137
sg39
F326096522689.1811
sg40
F102907055.48653305
sg41
F58256684650.903854
sg42
F118802508693.3492
sg43
F-303685538078.68805
sg44
F1.1496666387573863e+27
sg45
F6371000.0
sg46
F0.25373134328358216
sg47
F11.368473588250906
sg48
F-6014786272.634476
sbsg49
F0.5295295295295295
sg50
F0.3220313420890594
sg42
F0.18102761001357381
sbag1
(g2
g3
Ntp424
Rp425
(dp426
g7
F479949.4230242332
sg8
F8.45480678e+17
sg9
I0
sg10
F0.04596209401316567
sg11
F5.433327106522346e+30
sg12
F1.934514231915125e+28
sg13
F473219.69548490434
sg14
g15
(g19
S'\x87\xf7\x03\xd2\xfa\xeb\xe9?'
p427
tp428
Rp429
sg25
g1
(g26
g3
Ntp430
Rp431
(dp432
g30
F1558248455621.2068
sg31
(lp433
F5.646027559940846
aF4.310673599047529
aF3.643640803898689
aF4.762212619961223
aF5.033633615301319
aF1.5011178697722702
aF1.0109129057189754
aF2.334702831216304
aF5.71831592139949
aF4.9054134887732275
asg33
F1786655724744.5989
sg34
F0.11240279248151538
sg35
F-556077541357.3772
sg36
(lp434
I2
aI0
aI0
aI0
aI0
aI2
aI2
aI2
aI0
aI1
asg11
F5.433327106522346e+30
sg38
F1063485550443.2135
sg39
F1614600088139.2686
sg40
F641809728.8262477
sg41
F1515394419228.4878
sg42
F-676488066269.6377
sg43
F-1466048205487.8345
sg44
F1.934514231915125e+28
sg45
F6371000.0
sg46
F0.25373134328358216
sg47
F4.280065312818278
sg48
F35930026279.18863
sbsg49
F0.0
sg50
F1.0
sg42
F0.14985290357021971
sbag1
(g2
g3
Ntp435
Rp436
(dp437
g7
F4847402.083287644
sg8
F4.04988124e+17
sg9
I0
sg10
F0.07241656741204451
sg11
F7.259294631705685e+30
sg12
F5.333004241674617e+28
sg13
F136521.6136101713
sg14
g15
(g19
S'T\xe4\xde\xd4\x18\xac\xc4?'
p438
tp439
Rp440
sg25
g1
(g26
g3
Ntp441
Rp442
(dp443
g30
F2218989229550.2646
sg31
(lp444
F3.5918061750781987
aF0.7047971861826596
aF5.184242930790959
aF4.748121851555667
aF2.0017852157366973
aF1.6949952481620616
aF5.345015488488891
aF1.5628190750797017
aF5.408117783244848
aF1.6363882280268112
asg33
F2966476247170.778
sg34
F0.005698807722478596
sg35
F-1582692383097.8152
sg36
(lp445
I2
aI1
aI1
aI1
aI1
aI1
aI0
aI2
aI2
aI0
asg11
F7.259294631705685e+30
sg38
F1765759670934.9868
sg39
F2217581683005.3516
sg40
F943560482.9990804
sg41
F-1148096594800.4026
sg42
F234344060573.21423
sg43
F2205164706337.1265
sg44
F5.333004241674617e+28
sg45
F6371000.0
sg46
F0.2537313432835821
sg47
F1.4649231432036547
sg48
F1046244498333.3118
sbsg49
F0.0
sg50
F1.0
sg42
F0.04323184430988758
sbag1
(g2
g3
Ntp446
Rp447
(dp448
g7
F4957.226296889496
sg8
F2.7548722e+17
sg9
I0
sg10
F0.0638374520841536
sg11
F2.512087619323102e+30
sg12
F9.740290934781321e+26
sg13
F687164.2882638057
sg14
g15
(g19
S'\x0e\xaa\x96\x9e\xa5\xa5\xdf?'
p449
tp450
Rp451
sg25
g1
(g26
g3
Ntp452
Rp453
(dp454
g30
F283051802522.22626
sg31
(lp455
F0.33725474108020376
aF3.6168990115021464
aF1.2190750643890689
aF4.004431548047979
aF4.573949482602069
aF1.2930112587590334
aF1.5335353738097315
aF4.379890663085548
aF2.144274665774665
aF4.9452588686407815
asg33
F400904448477.74036
sg34
F0.1401881729064918
sg35
F-21963702304.492867
sg36
(lp456
I1
aI1
aI0
aI0
aI0
aI1
aI2
aI1
aI0
aI1
asg11
F2.512087619323102e+30
sg38
F238633600284.36926
sg39
F300838964383.2746
sg40
F73074467.63214482
sg41
F-272788053025.23956
sg42
F-166561131937.68015
sg43
F250522397838.67603
sg44
F9.740290934781321e+26
sg45
F6371000.0
sg46
F0.2537313432835821
sg47
F14.723914439712676
sg48
F124933407857.86601
sbsg49
F0.17717717717717718
sg50
F1.0
sg42
F0.2176020246168718
sbag1
(g2
g3
Ntp457
Rp458
(dp459
g7
F236660.1142273335
sg8
F6.66810536e+17
sg9
I0
sg10
F0.041972614228036845
sg11
F3.943980718929833e+30
sg12
F5.91795868781219e+27
sg13
F674779.030681093
sg14
g15
(g19
S'\xb98\xb8e\xc2\xd9\xe0?'
p460
tp461
Rp462
sg25
g1
(g26
g3
Ntp463
Rp464
(dp465
g30
F727246940829.2805
sg31
(lp466
F2.251545557888866
aF3.4760649769780945
aF2.668310120934064
aF4.152783588580383
aF4.047978707082868
aF4.789408660388264
aF5.567942464613617
aF0.06644578469284089
aF6.272695887603002
aF4.163373917112863
asg33
F988190956863.2418
sg34
F0.1679447707153135
sg35
F-241829988231.69873
sg36
(lp467
I1
aI2
aI2
aI1
aI1
aI1
aI2
aI0
aI1
aI2
asg11
F3.943980718929833e+30
sg38
F588208902894.7867
sg39
F609085337887.6985
sg40
F240181541.22948974
sg41
F-81771510503.78333
sg42
F581436850934.531
sg43
F181428049664.62003
sg44
F5.91795868781219e+27
sg45
F6371000.0
sg46
F0.25373134328358216
sg47
F6.585645552181866
sg48
F553006894795.6779
sbsg49
F0.0
sg50
F1.0
sg42
F0.21368002638234612
sbag1
(g2
g3
Ntp468
Rp469
(dp470
g7
F304740.1774784032
sg8
F5.99921486e+17
sg9
I0
sg10
F0.04664186424395774
sg11
F3.490878899196636e+30
sg12
F3.632218190714022e+27
sg13
F774914.0605383493
sg14
g15
(g19
S'w5\xf0Q\x97\xdb\xd3?'
p471
tp472
Rp473
sg25
g1
(g26
g3
Ntp474
Rp475
(dp476
g30
F547278271087.97705
sg31
(lp477
F1.7234821594800214
aF2.3581467846885253
aF5.6452233424536695
aF2.3342590362964435
aF4.53719568714337
aF5.327514986517338
aF2.1268204467406617
aF4.260340272009553
aF4.807564735601391
aF5.244286910708835
asg33
F774178088320.1703
sg34
F0.032009683163688
sg35
F-249944026769.95636
sg36
(lp478
I2
aI2
aI0
aI0
aI1
aI0
aI0
aI0
aI1
aI0
asg11
F3.490878899196636e+30
sg38
F460820290666.76807
sg39
F548846261056.4141
sg40
F166659118.68898022
sg41
F387427298516.64734
sg42
F-66503067809.37015
sg43
F544802312997.6118
sg44
F3.632218190714022e+27
sg45
F6371000.0
sg46
F0.25373134328358204
sg47
F7.97544895361022
sg48
F-297758778412.52203
sbsg49
F0.0
sg50
F1.0
sg42
F0.2453894525038106
sbag1
(g2
g3
Ntp479
Rp480
(dp481
g7
F251684.1672960066
sg8
F8.24912488e+17
sg9
I0
sg10
F0.07238743574301482
sg11
F4.8982086457493374e+30
sg12
F1.3457733663423252e+28
sg13
F553562.9346182493
sg14
g15
(g19
S'\xcd\xa0\xdav36\xe7?'
p482
tp483
Rp484
sg25
g1
(g26
g3
Ntp485
Rp486
(dp487
g30
F1383558632419.7705
sg31
(lp488
F3.1346195344506276
aF3.573109130099684
aF3.4831605373973478
aF4.016101497740826
aF0.34318712055238154
aF2.496011644260538
aF4.154290936156362
aF4.636893074673656
aF6.196067882722867
aF3.8865971145744034
asg33
F1490187359760.4219
sg34
F0.019399774234515707
sg35
F-950655956142.3477
sg36
(lp489
I2
aI2
aI2
aI0
aI2
aI2
aI1
aI0
aI2
aI2
asg11
F4.8982086457493374e+30
sg38
F887016285571.6797
sg39
F1409752848391.014
sg40
F565538110.6677812
sg41
F-604603995178.5422
sg42
F-1377073756411.1023
sg43
F-301779659603.4816
sg44
F1.3457733663423252e+28
sg45
F6371000.0
sg46
F0.2537313432835821
sg47
F3.357327859954606
sg48
F-847413922243.3164
sbsg49
F0.0
sg50
F1.0
sg42
F0.17529492929577895
sbag1
(g2
g3
Ntp490
Rp491
(dp492
g7
F2141947.321043281
sg8
F2.67349438e+17
sg9
I0
sg10
F0.06796892385820072
sg11
F2.057949830350607e+30
sg12
F4.387043382870914e+26
sg13
F993661.3560722882
sg14
g15
(g19
S'\xd9\xa6\xfc\x04?\xc0\x8e?'
p493
tp494
Rp495
sg25
g1
(g26
g3
Ntp496
Rp497
(dp498
g30
F212056239403.7771
sg31
(lp499
F0.4002367988517352
aF5.565681506600268
aF2.267396167902181
aF3.1082798244500096
aF2.0179600848190646
aF0.37116110363069055
aF3.80541243623804
aF0.2892814557561259
aF1.3108433605336205
aF6.270487606540329
asg33
F269054881088.23114
sg34
F0.1650561894908482
sg35
F-209620817952.25177
sg36
(lp500
I2
aI2
aI1
aI2
aI1
aI0
aI1
aI0
aI0
aI1
asg11
F2.057949830350607e+30
sg38
F160151714933.47092
sg39
F231930001784.0042
sg40
F52353214.88559734
sg41
F-90166696495.24995
sg42
F-155407236203.85257
sg43
F172163052549.05356
sg44
F4.387043382870914e+26
sg45
F6371000.0
sg46
F0.2537313432835821
sg47
F21.154643135195858
sg48
F-41480179021.92105
sbsg49
F0.001001001001001001
sg50
F1.0
sg42
F0.31465942942289127
sbag1
(g2
g3
Ntp501
Rp502
(dp503
g7
F54229.64298523378
sg8
F4.59156682e+17
sg9
I0
sg10
F0.056860914914726335
sg11
F3.154530880087327e+30
sg12
F2.4219876768289652e+27
sg13
F726306.6718900066
sg14
g15
(g19
S'Iv\x03\x9dB\xa5\xda?'
p504
tp505
Rp506
sg25
g1
(g26
g3
Ntp507
Rp508
(dp509
g30
F550098051769.9329
sg31
(lp510
F5.662415642192415
aF0.36641501563449286
aF2.1311243976296144
aF4.101856054491517
aF5.644557217781748
aF4.404610007236565
aF5.068842720942223
aF1.804229027197702
aF5.311122941613841
aF2.706240324674252
asg33
F632180179214.3464
sg34
F0.1341864922344879
sg35
F-306551741169.99786
sg36
(lp511
I1
aI2
aI1
aI0
aI0
aI1
aI1
aI0
aI1
aI2
asg11
F3.154530880087327e+30
sg38
F376297725722.8253
sg39
F486722329197.17725
sg40
F176675745.69957897
sg41
F-114750710481.93967
sg42
F398480115820.43823
sg43
F279485640122.80756
sg44
F2.4219876768289652e+27
sg45
F6371000.0
sg46
F0.25373134328358204
sg47
F6.894836267920795
sg48
F-360217892627.0293
sbsg49
F0.0
sg50
F1.0
sg42
F0.22999711276516877
sbag1
(g2
g3
Ntp512
Rp513
(dp514
g7
F650135.2642216546
sg8
F7.67469684e+17
sg9
I0
sg10
F0.04002208683454352
sg11
F6.479224002553472e+30
sg12
F3.5823822888377536e+28
sg13
F315660.5828376377
sg14
g15
(g19
S'\x90{\r\xf8\x97{\xed?'
p515
tp516
Rp517
sg25
g1
(g26
g3
Ntp518
Rp519
(dp520
g30
F1761569521570.936
sg31
(lp521
F3.363405761369296
aF5.207851775907375
aF6.14076461096478
aF5.9535023017874025
aF1.1725043586190296
aF3.752211934481764
aF6.251449306408866
aF3.728209006642266
aF0.12021091588848319
aF3.941743066884326
asg33
F2431313016977.966
sg34
F0.11663109886674587
sg35
F422504792090.77563
sg36
(lp522
I0
aI0
aI0
aI1
aI1
aI2
aI1
aI1
aI0
aI1
asg11
F6.479224002553472e+30
sg38
F1447210129153.551
sg39
F1916841669772.696
sg40
F706435228.1509686
sg41
F869059261771.2415
sg42
F-1536763788769.2427
sg43
F1145704606128.7263
sg44
F3.5823822888377536e+28
sg45
F6371000.0
sg46
F0.2537313432835821
sg47
F2.500958028747588
sg48
F1655447881138.7974
sbsg49
F0.0
sg50
F1.0
sg42
F0.09995918456525194
sbag1
(g2
g3
Ntp523
Rp524
(dp525
g7
F312150.4862894925
sg8
F6.09518946e+17
sg9
I0
sg10
F0.073316685967587
sg11
F3.439020646221213e+30
sg12
F3.421148526134556e+27
sg13
F811234.3549626139
sg14
g15
(g19
S'\xac<\x0c;\xa6\xdc\xce?'
p526
tp527
Rp528
sg25
g1
(g26
g3
Ntp529
Rp530
(dp531
g30
F717116103224.5737
sg31
(lp532
F0.32144318363705193
aF3.2638196836899582
aF0.9896382384602792
aF5.159730934036496
aF1.5042179873746944
aF6.221086509679106
aF3.2868966079934823
aF2.915370949949003
aF0.6122890343855572
aF0.4221854383309504
asg33
F751347551137.7843
sg34
F0.0036637441291428644
sg35
F-276644245815.5655
sg36
(lp533
I2
aI2
aI1
aI0
aI1
aI0
aI2
aI0
aI1
aI2
asg11
F3.439020646221213e+30
sg38
F447230685201.06213
sg39
F714629067518.2692
sg40
F251855236.57297635
sg41
F230744850731.5585
sg42
F676196195595.0424
sg43
F-231199933401.42224
sg44
F3.421148526134556e+27
sg45
F6371000.0
sg46
F0.25373134328358204
sg47
F5.953733474373508
sg48
F-617186745855.773
sbsg49
F0.0
sg50
F1.0
sg42
F0.2568908790714944
sbag1
(g2
g3
Ntp534
Rp535
(dp536
g7
F1452445.4294291732
sg8
F8.1380906e+16
sg9
I0
sg10
F0.03497548068742016
sg11
F4.329495379926655e+30
sg12
F8.737192999000171e+27
sg13
F67776.89128426448
sg14
g15
(g19
S';.\x043\xf3\xad\xa1?'
p537
tp538
Rp539
sg25
g1
(g26
g3
Ntp540
Rp541
(dp542
g30
F850865225693.1023
sg31
(lp543
F0.9915647603477548
aF0.9550751003083515
aF1.8382460564685421
aF4.552338330373606
aF3.9546772338860645
aF2.8992571316723783
aF3.0809369769108703
aF5.683087058628095
aF6.160951227026429
aF2.563531096550206
asg33
F1200717596484.0085
sg34
F0.01895719529536303
sg35
F-771378746723.6387
sg36
(lp544
I2
aI1
aI1
aI2
aI2
aI0
aI0
aI0
aI2
aI0
asg11
F4.329495379926655e+30
sg38
F714712855050.0051
sg39
F836476886556.1836
sg40
F290105983.3385019
sg41
F323485932442.3007
sg42
F742860903807.5365
sg43
F-384514316166.48096
sg44
F8.737192999000171e+27
sg45
F6371000.0
sg46
F0.25373134328358204
sg47
F5.8055469401124995
sg48
F5026167300.267517
sbsg49
F0.02702702702702703
sg50
F1.0
sg42
F0.021462682240017086
sbag1
(g2
g3
Ntp545
Rp546
(dp547
g7
F62701.960551299155
sg8
F5.55436796e+17
sg9
I0
sg10
F0.06218008443768243
sg11
F3.769075031744918e+30
sg12
F4.935963381206386e+27
sg13
F615451.4111475651
sg14
g15
(g19
S'\xf4a\xce\x01\x06v\xe4?'
p548
tp549
Rp550
sg25
g1
(g26
g3
Ntp551
Rp552
(dp553
g30
F679925094935.2355
sg31
(lp554
F0.9481114013822391
aF3.832223518651446
aF1.6685384008679616
aF3.9629007340889553
aF1.8822832541968417
aF3.292336811587498
aF3.1741777123798944
aF6.154575940216094
aF4.095156584331192
aF2.027322888577081
asg33
F902486834767.8943
sg34
F0.15035515157832094
sg35
F-142681722160.02396
sg36
(lp555
I1
aI2
aI0
aI2
aI2
aI1
aI2
aI2
aI1
aI0
asg11
F3.769075031744918e+30
sg38
F537194544504.69904
sg39
F658604099695.0775
sg40
F222105022.07870114
sg41
F24438933985.181145
sg42
F39573980935.95826
sg43
F-657414070558.308
sg44
F4.935963381206386e+27
sg45
F6371000.0
sg46
F0.25373134328358204
sg47
F4.77251285989177
sg48
F642498268326.29
sbsg49
F0.0
sg50
F1.0
sg42
F0.19489294686339562
sbag1
(g2
g3
Ntp556
Rp557
(dp558
g7
F547310.1701372367
sg8
F9.13557838e+17
sg9
I0
sg10
F0.0501960157786541
sg11
F5.0314646224070084e+30
sg12
F1.4783318344107328e+28
sg13
F584918.2511145083
sg14
g15
(g19
S'\x95=\xa6J\xbb\xf0\xe5?'
p559
tp560
Rp561
sg25
g1
(g26
g3
Ntp562
Rp563
(dp564
g30
F1299137846260.2476
sg31
(lp565
F3.6135507381511496
aF2.4232316864247148
aF2.6898257693144503
aF2.194162450078664
aF3.6692486143465137
aF1.458479386180466
aF2.885610331529622
aF3.4962645142779043
aF5.062866733681514
aF4.463321985215164
asg33
F1561855586245.2559
sg34
F0.19813391347430248
sg35
F1269693169860.6711
sg36
(lp566
I0
aI1
aI1
aI2
aI0
aI0
aI0
aI0
aI0
aI2
asg11
F5.0314646224070084e+30
sg38
F929675944193.6046
sg39
F1398534853785.7969
sg40
F507714778.21501434
sg41
F269504876355.18338
sg42
F-759069062166.5403
sg43
F-1174612232234.651
sg44
F1.4783318344107328e+28
sg45
F6371000.0
sg46
F0.25373134328358216
sg47
F4.138668951319913
sg48
F520716922409.478
sbsg49
F0.0
sg50
F1.0
sg42
F0.1852241128529276
sbag1
(g2
g3
Ntp567
Rp568
(dp569
g7
F36892371880.82712
sg8
F6.6123722e+17
sg9
I0
sg10
F0.05614021191181655
sg11
F3.163259224122885e+30
sg12
F2.4489049502275767e+27
sg13
F1040198.9620521596
sg14
g15
(g19
S'\xe30&@\xef\x1aH?'
p570
tp571
Rp572
sg25
g1
(g26
g3
Ntp573
Rp574
(dp575
g30
F562787017012.4773
sg31
(lp576
F5.3586460745887665
aF3.500481373106442
aF2.226041321840337
aF4.24506287283653
aF3.21191582973917
aF4.2841351865158925
aF5.342444506445431
aF1.704975567067739
aF0.9523687923271775
aF0.9839963514977936
asg33
F635683406850.8165
sg34
F0.07375278215291732
sg35
F-153332521889.66418
sg36
(lp577
I1
aI2
aI2
aI1
aI2
aI0
aI2
aI0
aI2
aI1
asg11
F3.163259224122885e+30
sg38
F378382980268.3432
sg39
F521282095601.8003
sg40
F182571455.5124215
sg41
F351807369882.30597
sg42
F521250257615.515
sg43
F-5761261212.937189
sg44
F2.4489049502275767e+27
sg45
F6371000.0
sg46
F0.25373134328358204
sg47
F6.272132983386763
sg48
F-352782844569.36743
sbsg49
F0.0
sg50
F1.0
sg42
F0.32939633798318385
sbag1
(g2
g3
Ntp578
Rp579
(dp580
g7
F84565.86103336528
sg8
F5.7211662600000006e+17
sg9
I0
sg10
F0.058831813641311334
sg11
F3.695173061177388e+30
sg12
F4.5600744067287894e+27
sg13
F659543.8780233068
sg14
g155
sg25
g1
(g26
g3
Ntp581
Rp582
(dp583
g30
F625311834936.592
sg31
(lp584
F1.597778754866775
aF5.954766852794767
aF1.0381869630435048
aF2.771314619192179
aF0.4666098865245449
aF3.78798332560284
aF1.5509242198419155
aF0.45719749897704454
aF5.635035136989233
aF0.7553626587618831
asg33
F867442857198.0206
sg34
F0.08774909463077124
sg35
F333342898399.5256
sg36
(lp585
I2
aI2
aI0
aI2
aI0
aI2
aI1
aI0
aI0
aI2
asg11
F3.695173061177388e+30
sg38
F516335034046.44086
sg39
F581769637546.287
sg40
F197838925.83860558
sg41
F467333117641.8949
sg42
F441341950010.7971
sg43
F379042470353.13226
sg44
F4.5600744067287894e+27
sg45
F6371000.0
sg46
F0.2537313432835821
sg47
F6.992789568592336
sg48
F-94541950542.86032
sbsg49
F0.0
sg50
F1.0
sg42
F0.20885556137404718
sbag1
(g2
g3
Ntp586
Rp587
(dp588
g7
F1129477.997735645
sg8
F5.56939678e+17
sg9
I0
sg10
F0.05591555390877425
sg11
F3.132093967929507e+30
sg12
F2.3538128482263332e+27
sg13
F893649.6387428188
sg14
g15
(g19
S'%\x0f=\xebG)\xbc?'
p589
tp590
Rp591
sg25
g1
(g26
g3
Ntp592
Rp593
(dp594
g30
F538866969283.7156
sg31
(lp595
F5.376122612018469
aF1.5955585856088692
aF4.764529038389547
aF6.087553998339557
aF4.431150860350785
aF0.6439012372372938
aF5.453108291278265
aF4.311620743790775
aF1.5485921909393638
aF3.1713017920303703
asg33
F623219272805.2792
sg34
F0.08577599380086426
sg35
F-186649156714.81985
sg36
(lp596
I0
aI2
aI1
aI1
aI0
aI1
aI1
aI1
aI1
aI0
asg11
F3.132093967929507e+30
sg38
F370963852860.2852
sg39
F522145553774.31586
sg40
F171905241.26095888
sg41
F287255504813.59534
sg42
F148720986383.0617
sg43
F500517779439.9877
sg44
F2.3538128482263332e+27
sg45
F6371000.0
sg46
F0.2537313432835821
sg47
F7.565156016309329
sg48
F394058811065.3283
sbsg49
F0.0
sg50
F1.0
sg42
F0.2829890522685593
sbag1
(g2
g3
Ntp597
Rp598
(dp599
g7
F833325916.7656264
sg8
F7.80671592e+17
sg9
I0
sg10
F0.06543663520825671
sg11
F3.4764403589498366e+30
sg12
F3.572497463450882e+27
sg13
F1016781.1839407024
sg14
g388
sg25
g1
(g26
g3
Ntp600
Rp601
(dp602
g30
F719342211101.2305
sg31
(lp603
F3.7051725723115996
aF1.8965692558304152
aF5.888216509039587
aF0.6619081127224081
aF2.1398456703727406
aF6.085562881875605
aF1.3305928346279234
aF0.09725264784788146
aF5.705684036691691
aF3.2099725243728088
asg33
F767787213542.2285
sg34
F0.04719575706810513
sg35
F275532296572.3446
sg36
(lp604
I2
aI0
aI2
aI1
aI2
aI1
aI1
aI1
aI0
aI2
asg11
F3.4764403589498366e+30
sg38
F457016198537.0408
sg39
F706722257572.4607
sg40
F251663418.16037482
sg41
F20755056083.07949
sg42
F233446033474.36856
sg43
F-667052695672.0881
sg44
F3.572497463450882e+27
sg45
F6371000.0
sg46
F0.2537313432835821
sg47
F5.049033870225835
sg48
F-650467163307.1676
sbsg49
F0.0
sg50
F1.0
sg42
F0.3219807082478891
sbag1
(g2
g3
Ntp605
Rp606
(dp607
g7
F174880.0319193843
sg8
F4.81286388e+17
sg9
I0
sg10
F0.03684988922385903
sg11
F5.399120182535634e+30
sg12
F1.892221309785606e+28
sg13
F272372.1529247688
sg14
g15
(g19
S'\xa7\xb84e+\x00\xeb?'
p608
tp609
Rp610
sg25
g1
(g26
g3
Ntp611
Rp612
(dp613
g30
F1490169432191.0261
sg31
(lp614
F3.8396555090124878
aF4.612073335409826
aF6.265159158433472
aF1.792254215256638
aF2.7152954638797127
aF5.0262041219295694
aF5.005503270939065
aF5.130828742014898
aF4.833375077873221
aF5.639105636979213
asg33
F1767017600117.6409
sg34
F0.175961731536347
sg35
F-4160818230.8118286
sg36
(lp615
I0
aI0
aI1
aI2
aI0
aI0
aI2
aI2
aI1
aI0
asg11
F5.399120182535634e+30
sg38
F1051796190546.2148
sg39
F1740752900863.8533
sg40
F602110419.3577387
sg41
F-295459307797.0548
sg42
F-1686292145853.5894
sg43
F-432017893956.2768
sg44
F1.892221309785606e+28
sg45
F6371000.0
sg46
F0.2537313432835821
sg47
F3.3923923941269103
sg48
F1715490351734.3538
sbsg49
F0.0
sg50
F1.0
sg42
F0.08625118175951012
sbag1
(g2
g3
Ntp616
Rp617
(dp618
g7
F11444.94074696479
sg8
F1.08448212e+17
sg9
I0
sg10
F0.061675384775832155
sg11
F3.28499553141315e+30
sg12
F2.848209489782667e+27
sg13
F158190.90873550077
sg14
g15
(g19
S'\xbe\xa1\x9e\xd7J\x87\xcc?'
p619
tp620
Rp621
sg25
g1
(g26
g3
Ntp622
Rp623
(dp624
g30
F630273149171.4697
sg31
(lp625
F4.196943975387153
aF4.048280371800677
aF2.4268066780750868
aF0.4433115772544321
aF5.769215234372626
aF3.0304258195291887
aF5.38483605289798
aF3.5517130794243186
aF2.6171360288686474
aF0.2439104732126195
asg33
F685552746784.761
sg34
F0.06185697435064218
sg35
F-172449489521.79712
sg36
(lp626
I1
aI2
aI1
aI1
aI0
aI1
aI1
aI1
aI2
aI1
asg11
F3.28499553141315e+30
sg38
F408067111181.4054
sg39
F597624076211.5978
sg40
F212329326.1030195
sg41
F102023319144.0162
sg42
F488828760327.83167
sg43
F-343803693325.30585
sg44
F2.848209489782667e+27
sg45
F6371000.0
sg46
F0.25373134328358204
sg47
F5.6702337393958695
sg48
F-563033704481.6014
sbsg49
F0.5225225225225225
sg50
F1.0
sg42
F0.05009378776624191
sbag1
(g2
g3
Ntp627
Rp628
(dp629
g7
F50259.21127976089
sg8
F3.19660224e+17
sg9
I0
sg10
F0.07347918298182263
sg11
F4.7722478923477455e+30
sg12
F1.2284908584089406e+28
sg13
F224516.2212691071
sg14
g15
(g19
S'\xc5\xc1w)\x7f\x16\xe3?'
p630
tp631
Rp632
sg25
g1
(g26
g3
Ntp633
Rp634
(dp635
g30
F949869355363.8986
sg31
(lp636
F5.392807163721527
aF4.567698574200246
aF2.7313214528827876
aF5.077294597526922
aF1.0302391719096948
aF5.017017627104429
aF1.828335729399401
aF4.897888569545331
aF5.05874520930146
aF4.462675011537076
asg33
F1423773401285.1238
sg34
F0.006932146497304875
sg35
F716755335053.8605
sg36
(lp637
I2
aI0
aI2
aI1
aI0
aI1
aI1
aI0
aI1
aI2
asg11
F4.7722478923477455e+30
sg38
F847484167431.6212
sg39
F955188949209.9408
sg40
F325925606.209039
sg41
F591967083965.5149
sg42
F-773965104798.6687
sg43
F-559789197150.8352
sg44
F1.2284908584089406e+28
sg45
F6371000.0
sg46
F0.2537313432835821
sg47
F3.7677688833587624
sg48
F-219596652674.81653
sbsg49
F0.018018018018018018
sg50
F1.0
sg42
F0.07109680340188392
sbag1
(g2
g3
Ntp638
Rp639
(dp640
g7
F87519.12949865828
sg8
F6.01208348e+17
sg9
I0
sg10
F0.06285031287179442
sg11
F4.412308318275777e+30
sg12
F9.336238319507678e+27
sg13
F484377.6847832377
sg14
g78
sg25
g1
(g26
g3
Ntp641
Rp642
(dp643
g30
F1080805344680.0803
sg31
(lp644
F3.186852397470163
aF4.7398778245366175
aF4.310710036675843
aF5.466033275894204
aF3.768777557709908
aF1.0759980031038838
aF5.969710839572193
aF4.6351921710507815
aF3.3218903825597836
aF2.546471992791007
asg33
F1241197451672.541
sg34
F0.0402694794825449
sg35
F431837918907.1459
sg36
(lp645
I1
aI0
aI2
aI2
aI1
aI2
aI2
aI1
aI1
aI2
asg11
F4.412308318275777e+30
sg38
F738808006947.9412
sg39
F1086097018291.1697
sg40
F411407745.476067
sg41
F-229597285815.13617
sg42
F-174930024661.54733
sg43
F-1071917076836.1141
sg44
F9.336238319507678e+27
sg45
F6371000.0
sg46
F0.25373134328358204
sg47
F4.550621377975229
sg48
F969746271599.5544
sbsg49
F0.0
sg50
F1.0
sg42
F0.15338626684802528
sbag1
(g2
g3
Ntp646
Rp647
(dp648
g7
F663800.4094298016
sg8
F6.03677148e+17
sg9
I0
sg10
F0.06077748051167879
sg11
F3.344527591517288e+30
sg12
F3.06035585764777e+27
sg13
F849500.9342675816
sg14
g284
sg25
g1
(g26
g3
Ntp649
Rp650
(dp651
g30
F658084992279.2698
sg31
(lp652
F0.46815489744802047
aF1.4450203512806223
aF2.597912859211524
aF2.841547383401118
aF0.49334394569129264
aF3.354187862575505
aF3.4146744621555625
aF3.2667625752927503
aF5.404470160301948
aF5.1456305587344495
asg33
F710625643420.2456
sg34
F0.035633176488386466
sg35
F132673888568.81516
sg36
(lp653
I2
aI0
aI1
aI2
aI1
aI2
aI1
aI0
aI0
aI0
asg11
F3.344527591517288e+30
sg38
F422991454416.8129
sg39
F641515067852.2926
sg40
F224512100.40353805
sg41
F-222022420448.26215
sg42
F441564299101.24646
sg43
F-465362817638.836
sg44
F3.06035585764777e+27
sg45
F6371000.0
sg46
F0.253731343283582
sg47
F5.4715523362093235
sg48
F587064959260.7756
sbsg49
F0.0
sg50
F1.0
sg42
F0.26900862918473417
sbag1
(g2
g3
Ntp654
Rp655
(dp656
g7
F1789326650.7407746
sg8
F8.83481682e+17
sg9
I0
sg10
F0.0500039790353134
sg11
F3.6985780091358476e+30
sg12
F4.5769053263545283e+27
sg13
F1016615.3761982861
sg14
g388
sg25
g1
(g26
g3
Ntp657
Rp658
(dp659
g30
F699073404646.4331
sg31
(lp660
F5.591948115778274
aF1.8574521900486078
aF4.3534360684025115
aF0.7035347246643435
aF6.055481080836557
aF2.9835774818186986
aF3.609538501616081
aF2.2545686855298848
aF5.5446796546256065
aF3.5298582032384362
asg33
F869042218605.6736
sg34
F0.12390587629260308
sg35
F-512731845409.9358
sg36
(lp661
I0
aI1
aI0
aI2
aI2
aI0
aI1
aI0
aI0
aI2
asg11
F3.6985780091358476e+30
sg38
F517287034884.3295
sg39
F718151575432.6935
sg40
F233749635.94288427
sg41
F493773551790.52234
sg42
F-240592393960.40964
sg43
F-676651302566.4391
sg44
F4.5769053263545283e+27
sg45
F6371000.0
sg46
F0.25373134328358204
sg47
F4.370766583161558
sg48
F-95054823923.63594
sbsg49
F0.0
sg50
F1.0
sg42
F0.3219282024627906
sbag1
(g2
g3
Ntp662
Rp663
(dp664
g7
F660132.1563502657
sg8
F7.6216485e+17
sg9
I0
sg10
F0.037519732344603665
sg11
F6.402950401092207e+30
sg12
F3.4369398302424345e+28
sg13
F320042.78471158014
sg14
g15
(g19
S'\x01[\x80\xbc\xeed\xed?'
p665
tp666
Rp667
sg25
g1
(g26
g3
Ntp668
Rp669
(dp670
g30
F1845597447228.3154
sg31
(lp671
F2.866054327171463
aF1.4972570026705143
aF5.8895173381336265
aF5.447199996923085
aF0.26188937988909977
aF5.021339162089457
aF5.7642305260526365
aF4.807308715325898
aF4.816595308513314
aF2.3251944010242225
asg33
F2381446751523.7275
sg34
F0.10148479952588269
sg35
F-167057612277.78748
sg36
(lp672
I2
aI2
aI0
aI0
aI1
aI1
aI1
aI1
aI1
aI1
asg11
F6.402950401092207e+30
sg38
F1417527828287.9329
sg39
F1936765736917.144
sg40
F762078249.6696734
sg41
F524846499554.2009
sg42
F-1085644372138.2762
sg43
F-1603882108180.2415
sg44
F3.4369398302424345e+28
sg45
F6371000.0
sg46
F0.25373134328358216
sg47
F4.11734519902309
sg48
F1856795472253.73
sbsg49
F0.0
sg50
F1.0
sg42
F0.10134688182533372
sbag1
(g2
g3
Ntp673
Rp674
(dp675
g7
F31582.408782952152
sg8
F4.47766256e+17
sg9
I0
sg10
F0.05006806473932609
sg11
F3.568081643039333e+30
sg12
F3.964349444128206e+27
sg13
F553618.3625386171
sg14
g484
sg25
g1
(g26
g3
Ntp676
Rp677
(dp678
g30
F641278975110.1602
sg31
(lp679
F0.4331185344825487
aF5.92693494672361
aF0.7747143796110315
aF1.5174879770399263
aF2.6823788456789512
aF1.795631462223061
aF4.5088138146588435
aF1.9364236230088214
aF4.245638134367808
aF5.411769050320335
asg33
F808799502145.7882
sg34
F0.09071868821413277
sg35
F-474620761134.43274
sg36
(lp680
I2
aI1
aI2
aI0
aI2
aI0
aI2
aI1
aI0
aI0
asg11
F3.568081643039333e+30
sg38
F481428275086.77875
sg39
F583357825496.3436
sg40
F209091931.7071339
sg41
F-141900359660.56815
sg42
F580293888586.0986
sg43
F-59710597363.00635
sg44
F3.964349444128206e+27
sg45
F6371000.0
sg46
F0.25373134328358204
sg47
F6.180649002612734
sg48
F308067806815.6355
sbsg49
F0.0
sg50
F1.0
sg42
F0.17531248147056208
sbag1
(g2
g3
Ntp681
Rp682
(dp683
g7
F170933.3537021809
sg8
F4.9590168400000006e+17
sg9
I0
sg10
F0.06306909128798194
sg11
F3.094815641262493e+30
sg12
F2.243736893759701e+27
sg13
F814994.5561533711
sg14
g15
(g19
S'\xf1\xd5\xf7\x84\x9a\xa0\xcd?'
p684
tp685
Rp686
sg25
g1
(g26
g3
Ntp687
Rp688
(dp689
g30
F515854272492.5379
sg31
(lp690
F0.28967914479930146
aF5.620279424228223
aF1.6416584396069902
aF3.2875857505668944
aF5.029670541699377
aF0.17538149742838152
aF5.376382234390853
aF0.5133083765128623
aF0.6674365253957195
aF2.0751683151823164
asg33
F608472388258.11
sg34
F0.012129173722694137
sg35
F47516060106.757416
sg36
(lp691
I1
aI1
aI1
aI2
aI2
aI0
aI2
aI2
aI2
aI0
asg11
F3.094815641262493e+30
sg38
F362185945391.7322
sg39
F511684237788.74884
sg40
F161978480.49173826
sg41
F352519004665.9421
sg42
F337545156750.50824
sg43
F384556922126.917
sg44
F2.243736893759701e+27
sg45
F6371000.0
sg46
F0.25373134328358204
sg47
F7.133595765643792
sg48
F-367822422620.9127
sbsg49
F0.0
sg50
F1.0
sg42
F0.2580816094485675
sbag1
(g2
g3
Ntp692
Rp693
(dp694
g7
F6091135384.473844
sg8
F8.89335824e+17
sg9
I0
sg10
F0.0540699706806153
sg11
F3.6934717628645284e+30
sg12
F4.5516821711549547e+27
sg13
F1026183.2263729936
sg14
g15
(g19
S'\xb7\x95[\r\xc7\xb5k?'
p695
tp696
Rp697
sg25
g1
(g26
g3
Ntp698
Rp699
(dp700
g30
F563349098800.5856
sg31
(lp701
F4.750878642498412
aF4.223735822181275
aF4.873830913006113
aF2.1930157801769807
aF3.396881743448213
aF4.7293714574808
aF3.930906306895767
aF3.891648995176894
aF1.529191949888765
aF4.09228569903933
asg33
F866644280615.777
sg34
F0.05199598664581152
sg35
F-190385501398.05182
sg36
(lp702
I2
aI1
aI0
aI0
aI1
aI0
aI1
aI2
aI2
aI1
asg11
F3.6934717628645284e+30
sg38
F515859690842.7244
sg39
F543877198719.1388
sg40
F169212787.03202882
sg41
F306784983493.95526
sg42
F345196627714.8493
sg43
F420287634246.92065
sg44
F4.5516821711549547e+27
sg45
F6371000.0
sg46
F0.25373134328358204
sg47
F7.166366702044368
sg48
F406741615828.28424
sbsg49
F0.0
sg50
F1.0
sg42
F0.3249580216847813
sbag1
(g2
g3
Ntp703
Rp704
(dp705
g7
F105349.77599078811
sg8
F5.80621642e+17
sg9
I0
sg10
F0.05867649984125
sg11
F3.637766197469425e+30
sg12
F4.2832352609246687e+27
sg13
F690640.9803376494
sg14
g451
sg25
g1
(g26
g3
Ntp706
Rp707
(dp708
g30
F621286879614.1761
sg31
(lp709
F1.841758411485439
aF1.1560798032378798
aF2.6912512301182794
aF2.7579147200797784
aF2.470821935399055
aF1.5028152945603297
aF5.606462501360414
aF1.4333034781858707
aF2.5740930239549265
aF3.980624077755311
asg33
F840699666730.0835
sg34
F0.06517933263094276
sg35
F-106115132501.04187
sg36
(lp710
I0
aI0
aI0
aI0
aI1
aI0
aI2
aI1
aI2
aI1
asg11
F3.637766197469425e+30
sg38
F500416468291.71643
sg39
F582888341337.3434
sg40
F197471782.37386602
sg41
F-549036260621.1977
sg42
F548626314123.8622
sg43
F196895875827.46527
sg44
F4.2832352609246687e+27
sg45
F6371000.0
sg46
F0.25373134328358204
sg47
F6.6277568871604595
sg48
F164491889296.63953
sbsg49
F0.0
sg50
F1.0
sg42
F0.2187029771069223
sbag1
(g2
g3
Ntp711
Rp712
(dp713
g7
F314015.0212659304
sg8
F7.34937072e+17
sg9
I0
sg10
F0.058100197233947264
sg11
F3.9882294645129594e+30
sg12
F6.554988424525585e+27
sg13
F706657.9993760808
sg14
g15
(g19
S'$\x06q\x16f\xd8\xdc?'
p714
tp715
Rp716
sg25
g1
(g26
g3
Ntp717
Rp718
(dp719
g30
F726321502994.874
sg31
(lp720
F6.046720902073027
aF5.891642097931488
aF5.7603794128575965
aF1.0366983201633606
aF2.924072538343237
aF0.04676465625001743
aF3.782670020636984
aF0.9113356606930099
aF1.9941832589514923
aF6.023198563480199
asg33
F1040018046422.5796
sg34
F0.08200949509779681
sg35
F-533637729969.0751
sg36
(lp721
I1
aI2
aI2
aI0
aI0
aI2
aI1
aI1
aI2
aI1
asg11
F3.9882294645129594e+30
sg38
F619058360965.8212
sg39
F711218245453.9833
sg40
F238389678.62032714
sg41
F-468153204662.42847
sg42
F124599482683.28787
sg43
F-700218795507.304
sg44
F6.554988424525585e+27
sg45
F6371000.0
sg46
F0.2537313432835821
sg47
F4.88848938395448
sg48
F-43528643263.87259
sbsg49
F0.0
sg50
F1.0
sg42
F0.22377503313575892
sbag1
(g2
g3
Ntp722
Rp723
(dp724
g7
F18342.607840485365
sg8
F4.15958854e+17
sg9
I0
sg10
F0.06358468289141354
sg11
F3.3996545024110855e+30
sg12
F3.267171478136663e+27
sg13
F566512.5010799121
sg14
g15
(g19
S'\xa2\x8c\xcf\xed\x05\xcb\xe6?'
p725
tp726
Rp727
sg25
g1
(g26
g3
Ntp728
Rp729
(dp730
g30
F643738211078.7703
sg31
(lp731
F2.986795156036657
aF2.2886089112447414
aF3.0077463633294066
aF0.0879182253587869
aF6.09905158400944
aF2.660658170201996
aF1.537219068828164
aF5.467504127417782
aF2.275263591552151
aF3.645123251856418
asg33
F734244792845.8422
sg34
F0.08220248766460278
sg35
F110050886187.18597
sg36
(lp732
I1
aI0
aI2
aI2
aI2
aI2
aI1
aI0
aI1
aI2
asg11
F3.3996545024110855e+30
sg38
F437050471932.04895
sg39
F591731893401.5392
sg40
F215442165.6150435
sg41
F-474765015390.4207
sg42
F579744234780.3851
sg43
F-118504244259.33536
sg44
F3.267171478136663e+27
sg45
F6371000.0
sg46
F0.25373134328358204
sg47
F6.081555091852631
sg48
F335609320906.4955
sbsg49
F0.001001001001001001
sg50
F1.0
sg42
F0.17939562534197215
sbag1
(g2
g3
Ntp733
Rp734
(dp735
g7
F130364940496.20576
sg8
F8.71504916e+17
sg9
I0
sg10
F0.04791537753604995
sg11
F3.6310713525680675e+30
sg12
F4.251791203657413e+27
sg13
F1040468.5704750258
sg14
g572
sg25
g1
(g26
g3
Ntp736
Rp737
(dp738
g30
F654510849999.607
sg31
(lp739
F6.164848842633862
aF1.9813989248826145
aF4.817618309222199
aF3.7060345127132455
aF0.45514996348875936
aF5.051177006846818
aF5.496624942498977
aF4.501897956270625
aF1.375851107132382
aF0.1260561618377004
asg33
F837608113046.7157
sg34
F0.125276258870932
sg35
F558700296338.2026
sg36
(lp740
I0
aI2
aI2
aI2
aI1
aI2
aI0
aI2
aI0
aI1
asg11
F3.6310713525680675e+30
sg38
F498576257765.90216
sg39
F600163480685.7799
sg40
F213718465.9946433
sg41
F-47249191287.89116
sg42
F351825510444.83594
sg43
F486225270578.46466
sg44
F4.251791203657413e+27
sg45
F6371000.0
sg46
F0.2537313432835821
sg47
F7.227601286933386
sg48
F-214050686387.86353
sbsg49
F0.0
sg50
F1.0
sg42
F0.3294817139837582
sbag1
(g2
g3
Ntp741
Rp742
(dp743
g7
F2301976.8470046883
sg8
F7.50305352e+17
sg9
I0
sg10
F0.02766761455390936
sg11
F7.372881953929308e+30
sg12
F5.6308236899788255e+28
sg13
F246148.4861103831
sg14
g15
(g19
S'\xd9\xdbb\t\xe7\x18\xe7?'
p744
tp745
Rp746
sg25
g1
(g26
g3
Ntp747
Rp748
(dp749
g30
F2735011357500.833
sg31
(lp750
F2.5461920145182364
aF4.766358778325008
aF2.640790205131409
aF3.3877355056103076
aF4.108050747928687
aF1.7581236546874122
aF3.5427859934847254
aF3.6983530074155633
aF1.2442927066358493
aF2.15595668702312
asg33
F3048181867198.3716
sg34
F0.10672073285519795
sg35
F1680228190959.3906
sg36
(lp751
I2
aI0
aI1
aI2
aI1
aI1
aI1
aI0
aI0
aI0
asg11
F7.372881953929308e+30
sg38
F1814393968570.4595
sg39
F2889240480003.454
sg40
F1281162520.6474252
sg41
F-2011088314737.9941
sg42
F-1737047928111.1052
sg43
F2308760500081.2676
sg44
F5.6308236899788255e+28
sg45
F6371000.0
sg46
F0.25373134328358204
sg47
F2.2158141124278075
sg48
F1216580275986.8398
sbsg49
F0.0
sg50
F1.0
sg42
F0.07794702060162131
sbag1
(g2
g3
Ntp752
Rp753
(dp754
g7
F220480.09618057788
sg8
F5.0064795199999994e+17
sg9
I0
sg10
F0.058572513540787866
sg11
F3.0884088133502336e+30
sg12
F2.2252147452527848e+27
sg13
F826212.1336498512
sg14
g15
(g19
S'\x82\x84\xee\x8497\xcb?'
p755
tp756
Rp757
sg25
g1
(g26
g3
Ntp758
Rp759
(dp760
g30
F378527803662.21844
sg31
(lp761
F6.253968480899677
aF1.3649190583686421
aF4.101100139273723
aF1.4961348520597877
aF5.4705491640695065
aF1.6499521469771978
aF4.964217889533063
aF1.8020405556422043
aF0.43870495195239234
aF1.5071098332726405
asg33
F605955700248.9806
sg34
F0.03716239150793761
sg35
F199415771085.77463
sg36
(lp762
I0
aI0
aI2
aI1
aI1
aI0
aI1
aI1
aI1
aI2
asg11
F3.0884088133502336e+30
sg38
F360687916814.86945
sg39
F390336173542.88416
sg40
F101920946.94346155
sg41
F261857507551.22937
sg42
F-331817536050.24524
sg43
F-205571036738.26422
sg44
F2.2252147452527848e+27
sg45
F6371000.0
sg46
F0.253731343283582
sg47
F9.979434377743269
sg48
F-209824508476.5467
sbsg49
F0.0
sg50
F1.0
sg42
F0.2616338423224529
sbag1
(g2
g3
Ntp763
Rp764
(dp765
g7
F901899.41807943
sg8
F8.28233024e+17
sg9
I0
sg10
F0.05477203796766086
sg11
F4.062376186136583e+30
sg12
F6.991525228308228e+27
sg13
F771101.7128232021
sg14
g347
sg25
g1
(g26
g3
Ntp766
Rp767
(dp768
g30
F793161632906.2336
sg31
(lp769
F4.188845817004706
aF4.209293106649024
aF2.4907227810190817
aF3.850975322556259
aF1.58875597201596
aF2.1198628730224964
aF5.922590871074951
aF3.1451011875177857
aF5.115569094994252
aF5.36622582316446
asg33
F1074090499640.6056
sg34
F0.14293926029547355
sg35
F107676482655.89487
sg36
(lp770
I2
aI2
aI1
aI2
aI1
aI0
aI0
aI1
aI2
aI0
asg11
F4.062376186136583e+30
sg38
F639339583119.4081
sg39
F685912100445.2947
sg40
F269548328.31443655
sg41
F536631226606.053
sg42
F636941492257.2124
sg43
F-254521010878.14227
sg44
F6.991525228308228e+27
sg45
F6371000.0
sg46
F0.2537313432835821
sg47
F5.903024901032116
sg48
F413410342458.20905
sbsg49
F0.0
sg50
F1.0
sg42
F0.24418220906068067
sbag1
(g2
g3
Ntp771
Rp772
(dp773
g7
F801157.6870028572
sg8
F8.97615562e+17
sg9
I0
sg10
F0.0733011321712176
sg11
F4.309036151281365e+30
sg12
F8.59353656297639e+27
sg13
F753788.4837795339
sg14
g295
sg25
g1
(g26
g3
Ntp774
Rp775
(dp776
g30
F970385814473.1122
sg31
(lp777
F1.9107423363441542
aF1.2545728403675351
aF3.530680818308945
aF1.4872166128881676
aF5.462705042403736
aF0.2366113359228129
aF5.68391513770472
aF1.3809717527388374
aF6.162002808194466
aF3.987784471789805
asg33
F1190805618970.603
sg34
F0.19415185835704607
sg35
F-9730038641.4469
sg36
(lp778
I1
aI0
aI2
aI2
aI0
aI0
aI1
aI1
aI0
aI1
asg11
F4.309036151281365e+30
sg38
F708812868434.8827
sg39
F858570847132.941
sg40
F354169170.47202736
sg41
F-404597082395.86
sg42
F387512789944.1646
sg43
F-766144723388.6465
sg44
F8.59353656297639e+27
sg45
F6371000.0
sg46
F0.2537313432835821
sg47
F5.1806624789604765
sg48
F757199066832.0776
sbsg49
F0.0
sg50
F1.0
sg42
F0.23869968653018572
sbag1
(g2
g3
Ntp779
Rp780
(dp781
g7
F763114.234556068
sg8
F8.9892094e+17
sg9
I0
sg10
F0.07349342962721664
sg11
F4.324940506047944e+30
sg12
F8.705063212029488e+27
sg13
F750033.431886809
sg14
g15
(g19
S'|\xabRy\x830\xd7?'
p782
tp783
Rp784
sg25
g1
(g26
g3
Ntp785
Rp786
(dp787
g30
F1005168762784.2493
sg31
(lp788
F4.306238518191429
aF4.534550734919416
aF1.898239439473215
aF5.9758859306183325
aF0.6025507257032005
aF3.0585671554509557
aF5.77623528198287
aF0.5988847607258406
aF0.7960720202080542
aF3.1906919064624715
asg33
F1198507828829.236
sg34
F0.10325455152865334
sg35
F-313774346866.47015
sg36
(lp789
I1
aI0
aI2
aI1
aI2
aI0
aI1
aI0
aI0
aI0
asg11
F4.324940506047944e+30
sg38
F713397517160.2595
sg39
F971628080191.4994
sg40
F372694145.866368
sg41
F-916832042760.1244
sg42
F221046656700.11273
sg43
F-946149830512.2299
sg44
F8.705063212029488e+27
sg45
F6371000.0
sg46
F0.2537313432835821
sg47
F4.941899910621415
sg48
F70892812283.3053
sbsg49
F0.0
sg50
F1.0
sg42
F0.23751058676415618
sbag1
(g2
g3
Ntp790
Rp791
(dp792
g7
F484587.3637488251
sg8
F7.54523914e+17
sg9
I0
sg10
F0.03677528932328323
sg11
F5.714900969127379e+30
sg12
F2.3087235294970054e+28
sg13
F386573.5483168722
sg14
g15
(g19
S'Z\x9d\xc2_\xef\x1d\xec?'
p793
tp794
Rp795
sg25
g1
(g26
g3
Ntp796
Rp797
(dp798
g30
F1794493417441.8286
sg31
(lp799
F6.119147827947831
aF4.846787464821141
aF0.9078918088579642
aF0.14197513543219945
aF4.195536894350827
aF3.735659169772562
aF6.077667519177937
aF3.660383652248991
aF5.877271747713943
aF5.843804168270003
asg33
F1951824994972.2917
sg34
F0.012630087198134087
sg35
F1306279500045.1846
sg36
(lp800
I1
aI1
aI2
aI2
aI1
aI2
aI0
aI2
aI2
aI2
asg11
F5.714900969127379e+30
sg38
F1161800592245.4119
sg39
F1816568594557.9216
sg40
F773379425.4174953
sg41
F-39132039485.9386
sg42
F-1770489209213.5952
sg43
F-406558014055.0194
sg44
F2.3087235294970054e+28
sg45
F6371000.0
sg46
F0.25373134328358204
sg47
F3.3673099123472947
sg48
F1261754338205.9424
sbsg49
F0.0
sg50
F1.0
sg42
F0.12241495696700953
sbag1
(g2
g3
Ntp801
Rp802
(dp803
g7
F102921.98133260034
sg8
F5.52847642e+17
sg9
I0
sg10
F0.04367507053828286
sg11
F4.5156782989890195e+30
sg12
F1.012446140359849e+28
sg13
F427724.95208900503
sg14
g15
(g19
S'\xc5\x88\x1b\x83\xfb)\xeb?'
p804
tp805
Rp806
sg25
g1
(g26
g3
Ntp807
Rp808
(dp809
g30
F1160406888849.9756
sg31
(lp810
F3.6357841564187705
aF4.127242871170504
aF4.2041743150929385
aF2.0640752007568497
aF5.877835486524474
aF4.310396882674142
aF4.984251309567406
aF0.11138017670916035
aF2.3068157963010747
aF3.059480837743523
asg33
F1292530724008.2598
sg34
F0.039736835645554976
sg35
F1057302832537.7091
sg36
(lp811
I0
aI2
aI0
aI2
aI1
aI1
aI2
aI1
aI1
aI1
asg11
F4.5156782989890195e+30
sg38
F769363526195.3928
sg39
F1195995075551.1592
sg40
F452416165.42438674
sg41
F87877900578.57811
sg42
F-941707794834.9143
sg43
F737286002776.2537
sg44
F1.012446140359849e+28
sg45
F6371000.0
sg46
F0.25373134328358204
sg47
F2.4773507371677344
sg48
F-552080080821.8513
sbsg49
F0.0
sg50
F1.0
sg42
F0.13544623482818494
sbag1
(g2
g3
Ntp812
Rp813
(dp814
g7
F1034088.7201061395
sg8
F7.30585812e+17
sg9
I0
sg10
F0.061254178728106234
sg11
F3.7216436186480454e+30
sg12
F4.692150451486655e+27
sg13
F830291.0541209881
sg14
g15
(g19
S"\xad\xa6']G\n\xca?"
p815
tp816
Rp817
sg25
g1
(g26
g3
Ntp818
Rp819
(dp820
g30
F640640622505.0833
sg31
(lp821
F1.1702360594604275
aF5.209666274346527
aF5.144828275942154
aF3.0523200104892103
aF2.2073734753446685
aF1.6653736681139273
aF4.983317371836904
aF3.0221355392923015
aF1.3633864891056307
aF1.745993925776665
asg33
F879915312075.0602
sg34
F0.11238550666627295
sg35
F-71732949342.80264
sg36
(lp822
I0
aI2
aI1
aI2
aI1
aI2
aI1
aI0
aI1
aI2
asg11
F3.7216436186480454e+30
sg38
F523759114330.39307
sg39
F573781991771.6447
sg40
F204427107.1354025
sg41
F566206894525.6315
sg42
F522905664113.0666
sg43
F236210585114.02173
sg44
F4.692150451486655e+27
sg45
F6371000.0
sg46
F0.25373134328358204
sg47
F6.707474444739224
sg48
F59075465733.74603
sbsg49
F0.0
sg50
F1.0
sg42
F0.26292550047164626
sbag1
(g2
g3
Ntp823
Rp824
(dp825
g7
F2232007.9837412448
sg8
F7.78900228e+17
sg9
I0
sg10
F0.049617931445663316
sg11
F3.789961368028898e+30
sg12
F5.046286795193925e+27
sg13
F853573.5632298202
sg14
g284
sg25
g1
(g26
g3
Ntp826
Rp827
(dp828
g30
F758449425874.8342
sg31
(lp829
F0.18218029837168478
aF0.8463360982894512
aF2.7292157664935024
aF1.718331988454968
aF0.9207751577727389
aF5.557596077079815
aF0.22244616016925128
aF5.378775404753762
aF4.1843622840214465
aF0.6989805427189293
asg33
F912516813492.6002
sg34
F0.109116120246546
sg35
F582112391277.9785
sg36
(lp830
I1
aI0
aI0
aI0
aI0
aI0
aI0
aI2
aI0
aI0
asg11
F3.789961368028898e+30
sg38
F543164769936.07153
sg39
F676148924790.6993
sg40
F260949646.6581276
sg41
F-160807307661.88547
sg42
F671487893008.0667
sg43
F-79255145190.74547
sg44
F5.046286795193925e+27
sg45
F6371000.0
sg46
F0.2537313432835821
sg47
F6.165699704507785
sg48
F304078184384.8527
sbsg49
F0.0
sg50
F1.0
sg42
F0.2702982950227764
sbag1
(g2
g3
Ntp831
Rp832
(dp833
g7
F20367.720171345572
sg8
F3.39456914e+17
sg9
I0
sg10
F0.04096562693886954
sg11
F3.893451625366854e+30
sg12
F5.620460876860845e+27
sg13
F352487.55108467006
sg14
g15
(g19
S'n[\x90\xb9/\xd8\xec?'
p834
tp835
Rp836
sg25
g1
(g26
g3
Ntp837
Rp838
(dp839
g30
F752434053430.9417
sg31
(lp840
F1.5194271971512683
aF2.1376956555386797
aF0.6837181366053808
aF3.415216803450768
aF1.9432678934360763
aF3.806328847901839
aF3.9271612400004927
aF3.4534738315343954
aF4.3411957086274215
aF4.426709698386127
asg33
F963032348108.2599
sg34
F0.09115634313045028
sg35
F-72808718582.92691
sg36
(lp841
I2
aI2
aI2
aI0
aI1
aI2
aI0
aI1
aI2
aI0
asg11
F3.893451625366854e+30
sg38
F573233540540.6309
sg39
F685623456957.578
sg40
F254401364.57712466
sg41
F-384464656520.91003
sg42
F664334038733.9266
sg43
F169528197388.89923
sg44
F5.620460876860845e+27
sg45
F6371000.0
sg46
F0.25373134328358216
sg47
F6.533038148897088
sg48
F562996752313.04
sbsg49
F0.001001001001001001
sg50
F1.0
sg42
F0.11162105784347885
sbag1
(g2
g3
Ntp842
Rp843
(dp844
g7
F10879.409511975078
sg8
F3.3726894e+17
sg9
I0
sg10
F0.06532189087333314
sg11
F2.779295876769918e+30
sg12
F1.4593918920272563e+27
sg13
F687282.7953811913
sg14
g451
sg25
g1
(g26
g3
Ntp845
Rp846
(dp847
g30
F375796892503.05676
sg31
(lp848
F5.152629628691761
aF4.278704833868461
aF0.8922524723344445
aF1.6455586592875115
aF5.475150091358369
aF6.077353696961452
aF6.185173140521398
aF2.1976284178728878
aF4.271208153995375
aF3.9561936639615998
asg33
F490728041304.9461
sg34
F0.2019118100540277
sg35
F153581454900.77606
sg36
(lp849
I1
aI2
aI1
aI1
aI1
aI1
aI2
aI2
aI0
aI2
asg11
F2.779295876769918e+30
sg38
F292100024586.2774
sg39
F403986487253.1272
sg40
F106278777.35581572
sg41
F-182226520546.6347
sg42
F-215491232998.11572
sg43
F-341714223268.61505
sg44
F1.4593918920272563e+27
sg45
F6371000.0
sg46
F0.25373134328358216
sg47
F10.432945064162078
sg48
F326207470489.48596
sbsg49
F0.05105105105105105
sg50
F1.0
sg42
F0.21763955187071057
sbag1
(g2
g3
Ntp850
Rp851
(dp852
g7
F535125.6219170928
sg8
F7.87044182e+17
sg9
I0
sg10
F0.03759398141234538
sg11
F5.748082527205974e+30
sg12
F2.3559817886573986e+28
sg13
F399170.3157971816
sg14
g100
sg25
g1
(g26
g3
Ntp853
Rp854
(dp855
g30
F1418257956864.5933
sg31
(lp856
F0.42993858554033326
aF4.962395561494759
aF4.370991795234503
aF2.5268289929370336
aF2.8805445091738244
aF1.3781445160619843
aF2.395273596257105
aF2.7652207689499573
aF4.232695022806208
aF2.019614499618785
asg33
F1971700176222.2642
sg34
F0.16089968290081308
sg35
F817465747060.6272
sg36
(lp857
I2
aI0
aI1
aI1
aI2
aI0
aI1
aI1
aI2
aI2
asg11
F5.748082527205974e+30
sg38
F1173631057275.1575
sg39
F1645893294289.6292
sg40
F541820596.4839673
sg41
F-1427613907710.147
sg42
F-1642962861783.7673
sg43
F-98172149751.65392
sg44
F2.3559817886573986e+28
sg45
F6371000.0
sg46
F0.253731343283582
sg47
F3.2012748062473126
sg48
F51312952387.697815
sbsg49
F0.0
sg50
F1.0
sg42
F0.12640393333577418
sbag1
(g2
g3
Ntp858
Rp859
(dp860
g7
F1412165.71252706
sg8
F6.096393e+17
sg9
I0
sg10
F0.05772791042181867
sg11
F3.29181017362351e+30
sg12
F2.871917295629771e+27
sg13
F885588.7288070286
sg14
g15
(g19
S'\x9a\x0c\x1c\x9eO\xf8\xbd?'
p861
tp862
Rp863
sg25
g1
(g26
g3
Ntp864
Rp865
(dp866
g30
F541265593824.9114
sg31
(lp867
F2.2670312728830107
aF1.4471841429653662
aF4.023713701642849
aF2.832769313840694
aF2.908915612040357
aF2.432611028501411
aF5.720235930658637
aF0.046222144231155386
aF1.4276865593302666
aF0.6597595370467915
asg33
F688400021555.4252
sg34
F0.038626901011269976
sg35
F16396232740.500916
sg36
(lp868
I2
aI1
aI0
aI1
aI1
aI0
aI1
aI0
aI2
aI1
asg11
F3.29181017362351e+30
sg38
F409761917592.51495
sg39
F539189644265.17346
sg40
F168803872.33489364
sg41
F-286700668089.9627
sg42
F32836209299.001892
sg43
F538188866330.0983
sg44
F2.871917295629771e+27
sg45
F6371000.0
sg46
F0.2537313432835821
sg47
F7.79304474421189
sg48
F456354426900.29065
sbsg49
F0.0
sg50
F1.0
sg42
F0.2804364307888924
sbag1
(g2
g3
Ntp869
Rp870
(dp871
g7
F190311.50922473983
sg8
F4.6094039e+17
sg9
I0
sg10
F0.0566958856936335
sg11
F2.942624070296941e+30
sg12
F1.8338842856517682e+27
sg13
F837922.5721149651
sg14
g15
(g19
S'\xd43\xcbg\xd2\xe2\xc8?'
p872
tp873
Rp874
sg25
g1
(g26
g3
Ntp875
Rp876
(dp877
g30
F457751960048.58795
sg31
(lp878
F2.3483012173025606
aF4.346533103125848
aF4.741369049938755
aF2.5491929158298237
aF0.338229631707803
aF1.081676066083672
aF5.879016909621681
aF2.1008726842714887
aF5.480680529725268
aF0.0884302490557523
asg33
F550099025064.5234
sg34
F0.16491456228398108
sg35
F-335060428171.2083
sg36
(lp879
I0
aI2
aI1
aI2
aI0
aI1
aI0
aI0
aI1
aI0
asg11
F2.942624070296941e+30
sg38
F327439895871.7401
sg39
F529450946706.20544
sg40
F138855181.87242702
sg41
F-291034896814.3562
sg42
F-510254400114.13574
sg43
F-141275447733.35757
sg44
F1.8338842856517682e+27
sg45
F6371000.0
sg46
F0.25373134328358216
sg47
F9.694884251404396
sg48
F288706604146.97955
sbsg49
F0.0
sg50
F1.0
sg42
F0.2653421478364056
sbag1
(g2
g3
Ntp880
Rp881
(dp882
g7
F338113.6283793
sg8
F7.61788358e+17
sg9
I0
sg10
F0.04002208683454352
sg11
F4.4402631498310034e+30
sg12
F9.544912008038493e+27
sg13
F607006.6598714711
sg14
g15
(g19
S'\xcfs\x14\x0cP\xf2\xe4?'
p883
tp884
Rp885
sg25
g1
(g26
g3
Ntp886
Rp887
(dp888
g30
F1046461704572.4988
sg31
(lp889
F3.534320407935571
aF3.6662467645564365
aF2.2805889218373476
aF2.7137172236914906
aF3.5486740895047646
aF4.345968765323533
aF1.1867518122557705
aF5.796597632797248
aF2.0557225508443353
aF0.8297868508701741
asg33
F1254991762629.594
sg34
F0.10965903169036718
sg35
F410569991492.2204
sg36
(lp890
I1
aI2
aI0
aI2
aI0
aI0
aI2
aI1
aI0
aI0
asg11
F4.4402631498310034e+30
sg38
F747018906327.1393
sg39
F1134208695993.0818
sg40
F390719259.8719813
sg41
F-633247662049.2944
sg42
F-914934227478.2322
sg43
F-670316884357.7919
sg44
F9.544912008038493e+27
sg45
F6371000.0
sg46
F0.2537313432835821
sg47
F3.773890096880398
sg48
F846675289979.2856
sbsg49
F0.0
sg50
F1.0
sg42
F0.19221877562596584
sbag1
(g2
g3
Ntp891
Rp892
(dp893
g7
F553371.6867432389
sg8
F8.21838832e+17
sg9
I0
sg10
F0.033387957911756215
sg11
F5.125006533682739e+30
sg12
F1.5767830004736996e+28
sg13
F509501.8703709081
sg14
g15
(g19
S'D\xe3\xaeOL\xdb\xe8?'
p894
tp895
Rp896
sg25
g1
(g26
g3
Ntp897
Rp898
(dp899
g30
F1373618804523.2942
sg31
(lp900
F1.8328835162995953
aF4.605547686395644
aF1.5180987384480689
aF1.4661470449276017
aF5.4871093928228465
aF5.338609269106345
aF5.636070884682035
aF1.2434213669894765
aF2.388811326373255
aF3.1157345118297917
asg33
F1613024170846.942
sg34
F0.10235215562773489
sg35
F-892816347657.6198
sg36
(lp901
I1
aI0
aI2
aI1
aI0
aI1
aI2
aI0
aI1
aI2
asg11
F5.125006533682739e+30
sg38
F960133435027.9415
sg39
F1402336075185.2568
sg40
F546935727.8231138
sg41
F1074466099257.0385
sg42
F-421166034228.4039
sg43
F-1337596964477.084
sg44
F1.5767830004736996e+28
sg45
F6371000.0
sg46
F0.25373134328358216
sg47
F4.407348548806466
sg48
F122262171863.02216
sbsg49
F0.0
sg50
F1.0
sg42
F0.16134225895078758
sbag1
(g2
g3
Ntp902
Rp903
(dp904
g7
F900015.2938933559
sg8
F8.37904548e+17
sg9
I0
sg10
F0.06249697660621031
sg11
F7.392309433909489e+30
sg12
F5.682925060100095e+28
sg13
F273623.6755680442
sg14
g15
(g19
S'\xf2t\xb5\t\xef\x92\xeb?'
p905
tp906
Rp907
sg25
g1
(g26
g3
Ntp908
Rp909
(dp910
g30
F2047085245076.1343
sg31
(lp911
F3.745940257833184
aF4.560366078394422
aF5.02912670594717
aF6.074086406723631
aF2.8650562891504068
aF4.224376341098933
aF1.0388893831173625
aF4.337067750249315
aF0.9409743893679706
aF0.3331422708489998
asg33
F3062251635427.766
sg34
F0.05789976393144969
sg35
F-413972613684.10406
sg36
(lp912
I1
aI0
aI2
aI2
aI0
aI0
aI2
aI1
aI0
aI1
asg11
F7.392309433909489e+30
sg38
F1822768830611.7659
sg39
F2148351196286.2693
sg40
F828510444.1482943
sg41
F-2080284977739.2153
sg42
F-1867513042437.9653
sg43
F-1061983003116.6877
sg44
F5.682925060100095e+28
sg45
F6371000.0
sg46
F0.253731343283582
sg47
F3.658650430509205
sg48
F-341253496827.1354
sbsg49
F0.0
sg50
F1.0
sg42
F0.086647497263214
sbag1
(g2
g3
Ntp913
Rp914
(dp915
g7
F6367394.87658012
sg8
F5.6416709000000006e+17
sg9
I0
sg10
F0.05954600215379786
sg11
F3.052353178787796e+30
sg12
F2.1231072292028813e+27
sg13
F953162.3366622913
sg14
g15
(g19
S'x\xec\xa2\rX\x1d\xa6?'
p916
tp917
Rp918
sg25
g1
(g26
g3
Ntp919
Rp920
(dp921
g30
F529637196079.4328
sg31
(lp922
F3.1973888813761264
aF4.139189202552141
aF3.916002262781722
aF5.796227413148249
aF1.9187542360411063
aF1.046864379331634
aF0.22476079691499284
aF5.915171104479361
aF5.219675213254204
aF0.7422048498300315
asg33
F591889826423.0161
sg34
F0.1129944406353966
sg35
F517441026431.53955
sg36
(lp923
I1
aI2
aI2
aI0
aI2
aI1
aI1
aI0
aI0
aI2
asg11
F3.052353178787796e+30
sg38
F352315372870.84296
sg39
F548334728536.50195
sg40
F169681497.89290392
sg41
F-156779653289.44034
sg42
F-225319088639.67346
sg43
F499902273263.2712
sg44
F2.1231072292028813e+27
sg45
F6371000.0
sg46
F0.25373134328358204
sg47
F8.277439365404165
sg48
F91355891978.115
sbsg49
F0.0
sg50
F1.0
sg42
F0.3018347399430589
sbag1
(g2
g3
Ntp924
Rp925
(dp926
g7
F110488.11627381876
sg8
F2.6044297000000003e+17
sg9
I0
sg10
F0.06777958470093925
sg11
F2.1029782601432037e+30
sg12
F4.783788044524547e+26
sg13
F926982.9878907463
sg14
g15
(g19
S'\xbd\xdc\xf6N\x9d=\xb1?'
p927
tp928
Rp929
sg25
g1
(g26
g3
Ntp930
Rp931
(dp932
g30
F259524382380.7828
sg31
(lp933
F3.6059597997308064
aF3.5265733584672123
aF5.383188433049075
aF4.4979929143755975
aF3.108878308161138
aF5.437250377750373
aF3.2534473019509824
aF1.2508190616717914
aF3.7846851572412734
aF3.84438253037478
asg33
F280957658772.8012
sg34
F0.03736706350703468
sg35
F-170105375378.74792
sg36
(lp934
I0
aI0
aI1
aI2
aI2
aI2
aI2
aI0
aI0
aI2
asg11
F2.1029782601432037e+30
sg38
F167236701650.47693
sg39
F265384640317.21893
sg40
F70118726.85509382
sg41
F197839333995.38815
sg42
F-166527165420.3958
sg43
F-206634243273.82864
sg44
F4.783788044524547e+26
sg45
F6371000.0
sg46
F0.25373134328358204
sg47
F16.60042958641168
sg48
F-48505324530.57265
sbsg49
F0.008008008008008008
sg50
F1.0
sg42
F0.2935446128320697
sbag1
(g2
g3
Ntp935
Rp936
(dp937
g7
F12640.552727083876
sg8
F3.605991e+17
sg9
I0
sg10
F0.05852038745679856
sg11
F3.4949002364776425e+30
sg12
F3.64898374812773e+27
sg13
F464711.86734952946
sg14
g15
(g19
S'\x99A\xb9\xc0\x8a8\xea?'
p938
tp939
Rp940
sg25
g1
(g26
g3
Ntp941
Rp942
(dp943
g30
F706086383204.3798
sg31
(lp944
F5.6101445737104365
aF1.7452549008687785
aF1.337194785043284
aF4.9087360216366065
aF5.2875638047521845
aF5.3248356250399915
aF5.619027661063169
aF2.5024742817489205
aF2.033785826352476
aF5.008953111102529
asg33
F775962753128.4415
sg34
F0.07453046673208068
sg35
F618311261714.9191
sg36
(lp945
I2
aI0
aI0
aI2
aI1
aI0
aI2
aI2
aI2
aI2
asg11
F3.4949002364776425e+30
sg38
F461882591147.8819
sg39
F657961633867.0782
sg40
F244091989.47756422
sg41
F220110372017.59793
sg42
F593080781083.2543
sg43
F284901208756.1443
sg44
F3.64898374812773e+27
sg45
F6371000.0
sg46
F0.25373134328358204
sg47
F6.731010055783812
sg48
F-46434032861.84256
sbsg49
F0.009009009009009009
sg50
F1.0
sg42
F0.14715875799401767
sbag1
(g2
g3
Ntp946
Rp947
(dp948
g7
F993790.825757492
sg8
F7.810666e+17
sg9
I0
sg10
F0.03262870122397756
sg11
F6.789938676638651e+30
sg12
F4.220577983287313e+28
sg13
F295969.6586629701
sg14
g15
(g19
S'\xbd\x8a\x80\xbf\x9b,\xed?'
p949
tp950
Rp951
sg25
g1
(g26
g3
Ntp952
Rp953
(dp954
g30
F1925127193435.0557
sg31
(lp955
F4.55632620736748
aF3.9977537721751424
aF0.7186605791908779
aF0.3995137823406202
aF4.522474629240318
aF3.636259121962464
aF2.134448797475161
aF4.21931224596717
aF4.836416966080035
aF5.703654901664196
asg33
F2639009023858.844
sg34
F0.12902872222491416
sg35
F1619993363426.1187
sg36
(lp956
I1
aI0
aI2
aI1
aI0
aI0
aI2
aI0
aI0
aI0
asg11
F6.789938676638651e+30
sg38
F1570838704677.8833
sg39
F2139098995935.6584
sg40
F788388682.7012968
sg41
F371663890566.794
sg42
F-1906723613998.2905
sg43
F969613105436.5135
sg44
F4.220577983287313e+28
sg45
F6371000.0
sg46
F0.25373134328358216
sg47
F2.6711497933620447
sg48
F-1346563020922.908
sbsg49
F0.0
sg50
F1.0
sg42
F0.09372372524327387
sbag1
(g2
g3
Ntp957
Rp958
(dp959
g7
F430782.2695615774
sg8
F8.60089802e+17
sg9
I0
sg10
F0.07181469705386612
sg11
F4.409986708613378e+30
sg12
F9.319056163173748e+27
sg13
F693590.1598438962
sg14
g15
(g19
S')\x1ce\x9d\xed\xe8\xde?'
p960
tp961
Rp962
sg25
g1
(g26
g3
Ntp963
Rp964
(dp965
g30
F1112154433162.425
sg31
(lp966
F3.1962485555838076
aF4.774583713220749
aF0.5157833313753843
aF2.3886778768117733
aF0.7594107361538056
aF5.405147889771325
aF2.3686733397963176
aF2.812235095918206
aF1.8476622230560544
aF2.9710815155923664
asg33
F1240054792867.2708
sg34
F0.09888528480721583
sg35
F272954118901.20123
sg36
(lp967
I2
aI2
aI2
aI1
aI2
aI0
aI0
aI0
aI1
aI2
asg11
F4.409986708613378e+30
sg38
F738127852897.1852
sg39
F1178331435148.443
sg40
F429549452.7109204
sg41
F641315875727.267
sg42
F-779205736537.2485
sg43
F-883913678594.4845
sg44
F9.319056163173748e+27
sg45
F6371000.0
sg46
F0.25373134328358193
sg47
F3.989866592404429
sg48
F-950092083734.0066
sbsg49
F0.0
sg50
F1.0
sg42
F0.21963688395056713
sbag1
(g2
g3
Ntp968
Rp969
(dp970
g7
F8339037.349767832
sg8
F5.5008875799999994e+17
sg9
I0
sg10
F0.06271793298303045
sg11
F3.0000934523650145e+30
sg12
F1.981398952706773e+27
sg13
F962037.2633590625
sg14
g15
(g19
S'\x8a:\xd8\x9cp\xbc\xa1?'
p971
tp972
Rp973
sg25
g1
(g26
g3
Ntp974
Rp975
(dp976
g30
F471920733228.19226
sg31
(lp977
F4.298881292862134
aF2.2779774004969986
aF4.561956782452052
aF5.983641380716542
aF5.374861156587296
aF5.088357064070659
aF2.901303470282699
aF1.2205081716629078
aF4.7534221908384
aF3.399022143129857
asg33
F571795687081.0829
sg34
F0.04122402585915564
sg35
F201891094391.59192
sg36
(lp978
I2
aI1
aI0
aI2
aI0
aI0
aI2
aI1
aI2
aI1
asg11
F3.0000934523650145e+30
sg38
F340354575643.5018
sg39
F481274290470.62854
sg40
F143952880.53328225
sg41
F-345750713737.095
sg42
F-246350246212.35974
sg43
F413444674483.92255
sg44
F1.981398952706773e+27
sg45
F6371000.0
sg46
F0.253731343283582
sg47
F8.391342713973442
sg48
F267060616010.03925
sbsg49
F0.0
sg50
F1.0
sg42
F0.30464513339703647
sbag1
(g2
g3
Ntp979
Rp980
(dp981
g7
F130839.25684217276
sg8
F2.8172402599999997e+17
sg9
I0
sg10
F0.06725825696138858
sg11
F2.191970894182467e+30
sg12
F5.646403745536357e+26
sg13
F922960.278843919
sg14
g67
sg25
g1
(g26
g3
Ntp982
Rp983
(dp984
g30
F297891059909.90234
sg31
(lp985
F3.1697248139613894
aF0.5316914947425502
aF5.271701436301027
aF5.488046921184167
aF1.0656975767857753
aF5.18180434207692
aF1.5689412745729734
aF3.1021772930443983
aF3.3079209403962624
aF4.177848940128836
asg33
F305239599642.23126
sg34
F0.00747990301386624
sg35
F-215729122955.9024
sg36
(lp986
I2
aI1
aI0
aI2
aI0
aI1
aI2
aI1
aI0
aI0
asg11
F2.191970894182467e+30
sg38
F181690237882.28052
sg39
F296378087141.9859
sg40
F84460369.54079278
sg41
F-115529665661.99281
sg42
F200043513050.27072
sg43
F218683706353.3741
sg44
F5.646403745536357e+26
sg45
F6371000.0
sg46
F0.2537313432835821
sg47
F13.396255722847428
sg48
F-167193936488.88074
sbsg49
F0.013013013013013013
sg50
F1.0
sg42
F0.29227075496724103
sbag1
(g2
g3
Ntp987
Rp988
(dp989
g7
F106563.71091382521
sg8
F5.56137318e+17
sg9
I0
sg10
F0.03936436789265863
sg11
F4.3101702344826654e+30
sg12
F8.601455148734516e+27
sg13
F466811.0877269236
sg14
g15
(g19
S'\x81\x7f\xa2\x99\x97\x12\xea?'
p990
tp991
Rp992
sg25
g1
(g26
g3
Ntp993
Rp994
(dp995
g30
F1069625764267.8125
sg31
(lp996
F2.037659610439201
aF3.2923821809307006
aF2.456661707087773
aF5.6581585476528495
aF2.70079115953485
aF4.9745251320897195
aF6.1189549839915145
aF2.1772262978507
aF3.0861873223465452
aF0.6924621874428362
asg33
F1191354131513.9685
sg34
F0.04917867654921454
sg35
F-685388326691.9554
sg36
(lp997
I1
aI0
aI0
aI2
aI1
aI0
aI0
aI1
aI2
aI1
asg11
F4.3101702344826654e+30
sg38
F709139363996.4099
sg39
F1050772169003.5381
sg40
F409812060.8041061
sg41
F7469692179.54619
sg42
F330766529877.7529
sg43
F-997354327140.074
sg44
F8.601455148734516e+27
sg45
F6371000.0
sg46
F0.25373134328358204
sg47
F5.032618321131764
sg48
F-796435305900.9529
sbsg49
F0.0
sg50
F1.0
sg42
F0.1478235111135258
sbag1
(g2
g3
Ntp998
Rp999
(dp1000
g7
F666305.749532184
sg8
F8.11892654e+17
sg9
I0
sg10
F0.03855579152928135
sg11
F6.135724511751218e+30
sg12
F2.960546788771562e+28
sg13
F367331.13157773693
sg14
g15
(g19
S' A\xeb\xf0\xed\x88\xec?'
p1001
tp1002
Rp1003
sg25
g1
(g26
g3
Ntp1004
Rp1005
(dp1006
g30
F1835924187677.044
sg31
(lp1007
F4.678841267939438
aF5.081138597478125
aF5.026188113303378
aF3.021510149427419
aF2.2642365023825723
aF3.229221693491253
aF2.4028555378634446
aF4.035850691594843
aF5.896934274027215
aF4.375509991980631
asg33
F2210247333278.8623
sg34
F0.11173655776196781
sg35
F-1922929174751.8154
sg36
(lp1008
I1
aI2
aI1
aI2
aI2
aI0
aI0
aI1
aI2
aI1
asg11
F6.135724511751218e+30
sg38
F1315623412665.9895
sg39
F1981747115060.2178
sg40
F772384151.011151
sg41
F138397005061.43872
sg42
F-1510199986064.7324
sg43
F1283205996767.3071
sg44
F2.960546788771562e+28
sg45
F6371000.0
sg46
F0.2537313432835821
sg47
F2.437276984098647
sg48
F458815089036.7728
sbsg49
F0.0
sg50
F1.0
sg42
F0.11632152499961669
sbag1
(g2
g3
Ntp1009
Rp1010
(dp1011
g7
F1580209.2627793984
sg8
F7.73240504e+17
sg9
I0
sg10
F0.046506424402717815
sg11
F3.838263473681203e+30
sg12
F5.308501312921588e+27
sg13
F826178.1785454008
sg14
g757
sg25
g1
(g26
g3
Ntp1012
Rp1013
(dp1014
g30
F865013471712.137
sg31
(lp1015
F1.9091665445374577
aF0.7479331895537256
aF4.004846978973504
aF4.900265218172393
aF2.0154829863188697
aF0.017237115585036232
aF1.9252509419049624
aF0.4003176366994694
aF3.946689940912784
aF1.6175131333100157
asg33
F935924627495.4818
sg34
F0.06914126237301975
sg35
F-457627928001.5285
sg36
(lp1016
I2
aI1
aI2
aI2
aI2
aI1
aI1
aI2
aI1
aI1
asg11
F3.838263473681203e+30
sg38
F557097992556.8345
sg39
F840675668716.3572
sg40
F315828326.8469618
sg41
F-702844856014.304
sg42
F292193013984.65656
sg43
F-788263168332.922
sg44
F5.308501312921588e+27
sg45
F6371000.0
sg46
F0.25373134328358204
sg47
F5.067366464016955
sg48
F-57631309710.55986
sbsg49
F0.0
sg50
F1.0
sg42
F0.26162308987271027
sbag1
(g2
g3
Ntp1017
Rp1018
(dp1019
g7
F231580.61030240665
sg8
F7.00886148e+17
sg9
I0
sg10
F0.04268574995689065
sg11
F4.1674063771197267e+30
sg12
F7.64490211515589e+27
sg13
F624031.6278307772
sg14
g15
(g19
S'\x0c#\xdb\x8e\xfe-\xe4?'
p1020
tp1021
Rp1022
sg25
g1
(g26
g3
Ntp1023
Rp1024
(dp1025
g30
F956489871042.633
sg31
(lp1026
F1.5688860957313835
aF1.5181138107092882
aF4.895668946968626
aF1.4315375099107865
aF5.407543869508053
aF4.525602989071053
aF0.0462719577922118
aF1.3729552237162737
aF1.265744031510245
aF4.955794589310107
asg33
F1123158052799.952
sg34
F0.14988915576978623
sg35
F-397279051097.4663
sg36
(lp1027
I0
aI1
aI1
aI1
aI0
aI2
aI0
aI1
aI2
aI2
asg11
F4.1674063771197267e+30
sg38
F668546459999.9714
sg39
F994690020461.6078
sg40
F352429132.8631526
sg41
F806300030627.085
sg42
F-398223450840.7688
sg43
F-911496747117.829
sg44
F7.64490211515589e+27
sg45
F6371000.0
sg46
F0.25373134328358204
sg47
F4.300490987878494
sg48
F425978700143.29614
sbsg49
F0.0
sg50
F1.0
sg42
F0.1976100154797461
sbag1
(g2
g3
Ntp1028
Rp1029
(dp1030
g7
F3009906.3855180307
sg8
F5.98758064e+17
sg9
I0
sg10
F0.05964659648645564
sg11
F3.1954702833018775e+30
sg12
F2.5501864220553863e+27
sg13
F923018.7010201592
sg14
g67
sg25
g1
(g26
g3
Ntp1031
Rp1032
(dp1033
g30
F505373070549.8849
sg31
(lp1034
F2.258170587023777
aF3.968158292951549
aF3.5696837054035027
aF5.575922980039261
aF0.447077015451408
aF0.9603410144735801
aF0.9552465929513827
aF4.978672211061243
aF6.074477920342765
aF0.6292434305054219
asg33
F648695485084.1345
sg34
F0.2211635813123689
sg35
F72955386560.57687
sg36
(lp1035
I0
aI1
aI2
aI2
aI0
aI1
aI0
aI1
aI1
aI1
asg11
F3.1954702833018775e+30
sg38
F386128264931.0325
sg39
F497237105231.9294
sg40
F154573456.00813922
sg41
F489847827381.50146
sg42
F-74983024801.81192
sg43
F491550897477.56506
sg44
F2.5501864220553863e+27
sg45
F6371000.0
sg46
F0.25373134328358204
sg47
F8.005358438590443
sg48
F-44399959468.99448
sbsg49
F0.0
sg50
F1.0
sg42
F0.2922892553230504
sbag1
(g2
g3
Ntp1036
Rp1037
(dp1038
g7
F71436931841.58844
sg8
F4.81962222e+17
sg9
I0
sg10
F0.06493332084026297
sg11
F2.6942307163347116e+30
sg12
F1.2887596466830877e+27
sg13
F1045134.3522683844
sg14
g15
(g19
S'=\x05*\xe4\x9a\x081?'
p1039
tp1040
Rp1041
sg25
g1
(g26
g3
Ntp1042
Rp1043
(dp1044
g30
F303900409233.81305
sg31
(lp1045
F2.357600117669786
aF5.165124174061606
aF1.8616632396952233
aF2.114900548445747
aF0.6003116888534973
aF0.2559857871380113
aF3.3075167832158665
aF3.2957529861966
aF3.1351122645810836
aF2.3023646245386584
asg33
F461148579561.9843
sg34
F0.04967707221665654
sg35
F-305540661163.262
sg36
(lp1046
I1
aI0
aI2
aI2
aI2
aI0
aI0
aI0
aI0
aI1
asg11
F2.6942307163347116e+30
sg38
F274493202120.22876
sg39
F313252050504.086
sg40
F78498923.326954
sg41
F65008863899.7506
sg42
F-203345522300.5112
sg43
F238280183198.99524
sg44
F1.2887596466830877e+27
sg45
F6371000.0
sg46
F0.25373134328358204
sg47
F14.843624806548094
sg48
F23358063605.420166
sbsg49
F0.0
sg50
F1.0
sg42
F0.3309592115516551
sbag1
(g2
g3
Ntp1047
Rp1048
(dp1049
g7
F10250.790110928941
sg8
F3.5168056e+17
sg9
I0
sg10
F0.06752190921869344
sg11
F3.4997319564546505e+30
sg12
F3.669204598340652e+27
sg13
F451967.7916834434
sg14
g15
(g19
S'\xcd\x8a\xad\xf3\x81\x82\xea?'
p1050
tp1051
Rp1052
sg25
g1
(g26
g3
Ntp1053
Rp1054
(dp1055
g30
F699381413380.8345
sg31
(lp1056
F3.572425180051313
aF5.971601899415056
aF6.029186390077193
aF0.567927133730678
aF0.11867422409939501
aF0.6083317851455388
aF2.311337025860188
aF1.511843330293909
aF2.0588552335635977
aF5.272332523387232
asg33
F778109782314.5677
sg34
F0.0923571504910504
sg35
F-555614486561.8533
sg36
(lp1057
I1
aI2
aI0
aI0
aI2
aI1
aI2
aI2
aI1
aI0
asg11
F3.4997319564546505e+30
sg38
F463160584711.0522
sg39
F649166081035.5347
sg40
F240457264.60725665
sg41
F112216910498.25983
sg42
F479115242124.16174
sg43
F-438024183728.867
sg44
F3.669204598340652e+27
sg45
F6371000.0
sg46
F0.25373134328358216
sg47
F5.542560703331579
sg48
F316411927853.3414
sbsg49
F0.04604604604604605
sg50
F1.0
sg42
F0.1431231340330904
sbag1
(g2
g3
Ntp1058
Rp1059
(dp1060
g7
F87258.22411625624
sg8
F5.5653849800000006e+17
sg9
I0
sg10
F0.07342627506631681
sg11
F5.169706076153853e+30
sg12
F1.6254436907864855e+28
sg13
F339824.2259566826
sg14
g24
sg25
g1
(g26
g3
Ntp1061
Rp1062
(dp1063
g30
F1302204209446.6091
sg31
(lp1064
F4.773169583857531
aF4.973899714824365
aF1.7173991444256729
aF5.771030783635253
aF5.461878567515259
aF3.5674322149244597
aF2.7550296963350296
aF1.096650757797442
aF5.48483173909358
aF0.6410733583143792
asg33
F1637724610225.2346
sg34
F0.24332760561763592
sg35
F1387952010370.7173
sg36
(lp1065
I1
aI0
aI1
aI0
aI2
aI0
aI1
aI0
aI1
aI1
asg11
F5.169706076153853e+30
sg38
F974836077515.0206
sg39
F1488719867406.9949
sg40
F502654853.87825096
sg41
F525323018062.9255
sg42
F-1083382979049.4365
sg43
F-1021062272497.7494
sg44
F1.6254436907864855e+28
sg45
F6371000.0
sg46
F0.25373134328358204
sg47
F3.8973856285934776
sg48
F117948239552.11401
sbsg49
F0.0
sg50
F1.0
sg42
F0.10761100488628282
sbag1
(g2
g3
Ntp1066
Rp1067
(dp1068
g7
F4232820.81949989
sg8
F3.4740645e+17
sg9
I0
sg10
F0.07105640600492337
sg11
F6.8816791990318e+30
sg12
F4.423560069279351e+28
sg13
F128586.98163705612
sg14
g15
(g19
S'\xce5\xf5)\xa2r\xc1?'
p1069
tp1070
Rp1071
sg25
g1
(g26
g3
Ntp1072
Rp1073
(dp1074
g30
F2359751066783.3804
sg31
(lp1075
F4.69126168795502
aF2.520799102820013
aF0.3550377444407775
aF4.995212085747896
aF4.221272543672207
aF3.151801959103427
aF4.326498618262572
aF5.413664085211937
aF4.400373875671416
aF5.9615061121987525
asg33
F2701723343818.5366
sg34
F0.03901275887816258
sg35
F-498593238923.38904
sg36
(lp1076
I1
aI0
aI1
aI1
aI1
aI2
aI0
aI1
aI0
aI1
asg11
F6.8816791990318e+30
sg38
F1608168657034.8433
sg39
F2446842056247.2793
sg40
F1062762542.8302544
sg41
F1830673994308.7417
sg42
F-2324432371224.399
sg43
F-764231771012.2573
sg44
F4.423560069279351e+28
sg45
F6371000.0
sg46
F0.2537313432835821
sg47
F3.4592415263408887
sg48
F-1545015714121.3718
sbsg49
F0.0
sg50
F1.0
sg42
F0.04071921085173444
sbag1
(g2
g3
Ntp1077
Rp1078
(dp1079
g7
F1123797.817238059
sg8
F6.8623382e+17
sg9
I0
sg10
F0.06505087521504997
sg11
F3.5492352252067874e+30
sg12
F3.881252784600009e+27
sg13
F857494.3013678887
sg14
g15
(g19
S',~\xa7E\x08\xb5\xc4?'
p1080
tp1081
Rp1082
sg25
g1
(g26
g3
Ntp1083
Rp1084
(dp1085
g30
F616962973957.4224
sg31
(lp1086
F5.21961365723408
aF0.23806950326983473
aF2.195205790702151
aF2.751886564620766
aF1.40708276334288
aF4.929050340927172
aF1.8337397764805028
aF4.5945214487282575
aF5.321837520279354
aF2.8709116346766685
asg33
F800277994740.3834
sg34
F0.15305391464765017
sg35
F471143878184.7883
sg36
(lp1087
I0
aI1
aI2
aI2
aI2
aI0
aI1
aI2
aI0
aI1
asg11
F3.5492352252067874e+30
sg38
F476355949250.2283
sg39
F523023177962.1316
sg40
F197836046.55512637
sg41
F-227074615787.25897
sg42
F519340714316.75244
sg43
F61955364082.32095
sg44
F3.881252784600009e+27
sg45
F6371000.0
sg46
F0.25373134328358204
sg47
F6.401920348088323
sg48
F3716126972.226486
sbsg49
F0.0
sg50
F1.0
sg42
F0.27153986209983144
sbag1
(g2
g3
Ntp1088
Rp1089
(dp1090
g7
F174249.0973968314
sg8
F4.48417402e+17
sg9
I0
sg10
F0.06449508145824814
sg11
F2.888915128095116e+30
sg12
F1.703616858614428e+27
sg13
F845749.1751920816
sg14
g15
(g19
S'K\xb2K\x901\xdd\xc6?'
p1091
tp1092
Rp1093
sg25
g1
(g26
g3
Ntp1094
Rp1095
(dp1096
g30
F365098305203.8463
sg31
(lp1097
F1.517345352407691
aF5.588436314074849
aF0.07959156131894435
aF2.834547567145136
aF5.642321087860015
aF2.659011834224885
aF3.996386284805355
aF3.45546408880447
aF6.258778228501994
aF0.6823673164803883
asg33
F530201406224.4377
sg34
F0.13307016327020452
sg35
F107572106381.9397
sg36
(lp1098
I2
aI1
aI1
aI0
aI0
aI2
aI2
aI2
aI2
aI1
asg11
F2.888915128095116e+30
sg38
F315596075133.5939
sg39
F357515174926.8788
sg40
F99823202.38566995
sg41
F-52101327848.54119
sg42
F8402263473.541996
sg43
F-357416426974.91943
sg44
F1.703616858614428e+27
sg45
F6371000.0
sg46
F0.2537313432835821
sg47
F11.019078288889084
sg48
F-336943309575.9109
sbsg49
F0.0
sg50
F1.0
sg42
F0.26782057214415916
sbag1
(g2
g3
Ntp1099
Rp1100
(dp1101
g7
F376714.7800223929
sg8
F8.21181514e+17
sg9
I0
sg10
F0.04798173199175171
sg11
F4.989273143452493e+30
sg12
F1.4353966525957105e+28
sg13
F533578.4596274665
sg14
g15
(g19
S'\xee\x0b\xcf\x9dK\xf5\xe7?'
p1102
tp1103
Rp1104
sg25
g1
(g26
g3
Ntp1105
Rp1106
(dp1107
g30
F1240807903623.8286
sg31
(lp1108
F3.0879733171959978
aF4.221622750436146
aF4.783941996837673
aF2.911721931447189
aF4.57010680732096
aF0.7013763280026213
aF5.969417279828839
aF0.7964411238861059
aF4.479170126300422
aF0.7468070720398283
asg33
F1539007992514.0383
sg34
F0.05380945073264559
sg35
F-2476994611.6730957
sg36
(lp1109
I1
aI0
aI2
aI1
aI0
aI1
aI2
aI0
aI2
aI0
asg11
F4.989273143452493e+30
sg38
F916076186020.261
sg39
F1207269318323.1387
sg40
F475907282.721486
sg41
F1166923584541.4292
sg42
F556517098343.5435
sg43
F-1071348648300.6821
sg44
F1.4353966525957105e+28
sg45
F6371000.0
sg46
F0.25373134328358204
sg47
F5.191478947309089
sg48
F-309487349181.0137
sbsg49
F0.0
sg50
F1.0
sg42
F0.1689665122153644
sbag1
(g2
g3
Ntp1110
Rp1111
(dp1112
g7
F1191180273.702938
sg8
F4.88600208e+17
sg9
I0
sg10
F0.05831099845071105
sg11
F2.731711199093254e+30
sg12
F1.3619837597826953e+27
sg13
F1030653.7132138415
sg14
g251
sg25
g1
(g26
g3
Ntp1113
Rp1114
(dp1115
g30
F328636421436.68365
sg31
(lp1116
F4.4265298021026345
aF3.0929070263404053
aF3.4205219631292345
aF5.53454436479101
aF5.434252123552289
aF4.9239893024332435
aF5.7913085263854285
aF3.009315783896036
aF2.673268693246507
aF4.6053462024648075
asg33
F474068255647.5926
sg34
F0.0595319346554075
sg35
F111845649618.20009
sg36
(lp1117
I0
aI2
aI1
aI1
aI0
aI2
aI2
aI2
aI2
aI2
asg11
F2.731711199093254e+30
sg38
F282183485504.5194
sg39
F309997793164.35864
sg40
F87667841.14864361
sg41
F75863376931.41748
sg42
F293521856047.7606
sg43
F99717359517.03786
sg44
F1.3619837597826953e+27
sg45
F6371000.0
sg46
F0.25373134328358204
sg47
F12.89386457245784
sg48
F-278987330301.60535
sbsg49
F0.0
sg50
F1.0
sg42
F0.3263736758510498
sbag1
(g2
g3
Ntp1118
Rp1119
(dp1120
g7
F7.727719799341163
sg8
F4.0883328e+16
sg9
I0
sg10
F0.07335634682115126
sg11
F1.62081998554735e+30
sg12
F1.6879980053730406e+26
sg13
F244965.74909137495
sg14
g746
sg25
g1
(g26
g3
Ntp1121
Rp1122
(dp1123
g30
F140364926272.3228
sg31
(lp1124
F4.467446121015441
aF6.153073038515342
aF3.8716584264011455
aF4.124114158781138
aF2.245897498315918
aF5.325515711946918
aF4.373111602233532
aF5.225662663936082
aF0.7714711891253053
aF5.840045722019892
asg33
F166894058257.71207
sg34
F0.10291916587028668
sg35
F-80712919848.3245
sg36
(lp1125
I1
aI2
aI2
aI0
aI1
aI1
aI2
aI0
aI2
aI2
asg11
F1.62081998554735e+30
sg38
F99341701343.87622
sg39
F140618895821.22534
sg40
F31769082.727998346
sg41
F91145513981.73251
sg42
F-16913901518.542318
sg43
F-139597972039.0009
sg44
F1.6879980053730406e+26
sg45
F6371000.0
sg46
F0.25373134328358216
sg47
F4.591815187426771
sg48
F-70367561507.7314
sbsg49
F0.975975975975976
sg50
F0.0008457903308553528
sg42
F0.07757248721226874
sbag1
(g2
g3
Ntp1126
Rp1127
(dp1128
g7
F659.8362414986314
sg8
F4.0883328e+16
sg9
I0
sg10
F0.07097718358498516
sg11
F2.2168422153349586e+30
sg12
F5.9070674393380284e+26
sg13
F130949.9587372301
sg14
g15
(g19
S'L\xfe\xd6\x97\xbe\x03\xc3?'
p1129
tp1130
Rp1131
sg25
g1
(g26
g3
Ntp1132
Rp1133
(dp1134
g30
F246725155435.33508
sg31
(lp1135
F4.9732939846345845
aF1.9748110104459815
aF1.5080729478295496
aF1.494964401242739
aF1.6521553103093047
aF1.9277239598350826
aF2.6927369570775275
aF5.385405371520952
aF0.9362816472488665
aF3.639945520480504
asg33
F312205734115.87146
sg34
F0.07457042940666461
sg35
F-206832924909.13782
sg36
(lp1136
I2
aI2
aI1
aI0
aI1
aI1
aI1
aI0
aI0
aI1
asg11
F2.2168422153349586e+30
sg38
F185836746497.54254
sg39
F234452041016.72052
sg40
F63304840.60551569
sg41
F10695405992.521698
sg42
F146185798557.49802
sg43
F183296131538.59143
sg44
F5.9070674393380284e+26
sg45
F6371000.0
sg46
F0.2537313432835821
sg47
F7.180743153670103
sg48
F-109879520389.79836
sbsg49
F0.5065065065065065
sg50
F1.0
sg42
F0.0414674869334562
sbag1
(g2
g3
Ntp1137
Rp1138
(dp1139
g7
F51626.29100569858
sg8
F5.113502e+17
sg9
I0
sg10
F0.0521408713100153
sg11
F3.7612723649899664e+30
sg12
F4.8952167825184187e+27
sg13
F568954.5238157632
sg14
g418
sg25
g1
(g26
g3
Ntp1140
Rp1141
(dp1142
g30
F720217316526.6471
sg31
(lp1143
F3.4603065548642196
aF3.0671309304426515
aF2.793135077961268
aF4.503620163082629
aF0.7538219279461067
aF4.281042205298669
aF2.564114781895959
aF2.997966062750528
aF4.98660699854673
aF3.3148454175487383
asg33
F898754080678.6582
sg34
F0.22780121092532704
sg35
F475251292467.5678
sg36
(lp1144
I2
aI2
aI2
aI1
aI1
aI2
aI2
aI0
aI0
aI2
asg11
F3.7612723649899664e+30
sg38
F534972667070.6299
sg39
F627771616407.4817
sg40
F242388555.98583078
sg41
F-22715069050.265747
sg42
F241751045047.1879
sg43
F-579356224257.1101
sg44
F4.8952167825184187e+27
sg45
F6371000.0
sg46
F0.2537313432835821
sg47
F5.107698590880945
sg48
F409533194030.48425
sbsg49
F0.0
sg50
F1.0
sg42
F0.18016893254165833
sbag1
(g2
g3
Ntp1145
Rp1146
(dp1147
g7
F196570.62525904374
sg8
F5.6385849e+17
sg9
I0
sg10
F0.059394437500726746
sg11
F3.369261994521164e+30
sg12
F3.151896363144395e+27
sg13
F781860.4564734962
sg14
g15
(g19
S'\xec~\x8dM\xf7.\xd3?'
p1148
tp1149
Rp1150
sg25
g1
(g26
g3
Ntp1151
Rp1152
(dp1153
g30
F548382361087.21655
sg31
(lp1154
F3.2284317509282867
aF0.307430510939498
aF3.930014097300504
aF6.018681935229991
aF2.2340684428341113
aF0.7843768423715501
aF3.9546709334343704
aF3.7318505262815815
aF3.337715353595903
aF3.1249866825641317
asg33
F721175352112.3549
sg34
F0.17192505412976472
sg35
F8028301620.843597
sg36
(lp1155
I0
aI1
aI0
aI1
aI2
aI2
aI0
aI1
aI2
aI2
asg11
F3.369261994521164e+30
sg38
F429271042924.0207
sg39
F456894234921.05304
sg40
F170153931.59708163
sg41
F250095162633.4031
sg42
F437858913293.85284
sg43
F130506375143.97784
sg44
F3.151896363144395e+27
sg45
F6371000.0
sg46
F0.25373134328358216
sg47
F6.572857450462391
sg48
F382283007606.34247
sbsg49
F0.0
sg50
F1.0
sg42
F0.24758914454994047
sbag1
(g2
g3
Ntp1156
Rp1157
(dp1158
g7
F257742.87328541186
sg8
F7.17174056e+17
sg9
I0
sg10
F0.044999844870890204
sg11
F4.984024146070437e+30
sg12
F1.4301181851666862e+28
sg13
F466856.80674660916
sg14
g992
sg25
g1
(g26
g3
Ntp1159
Rp1160
(dp1161
g30
F1489772068358.689
sg31
(lp1162
F2.3707481369898327
aF0.47489462458324483
aF5.743319868543207
aF1.337900330538688
aF2.0466448895069003
aF4.497031322100433
aF2.879975939639546
aF5.094910390622709
aF3.144064954881828
aF4.1042032933977755
asg33
F1536175644514.599
sg34
F0.02195564361208493
sg35
F1326781807532.4453
sg36
(lp1163
I2
aI0
aI1
aI1
aI0
aI0
aI2
aI2
aI2
aI0
asg11
F4.984024146070437e+30
sg38
F914390264592.0233
sg39
F1521573589464.2993
sg40
F626431858.6285272
sg41
F-688743864180.7932
sg42
F-1481152943289.9395
sg43
F-348385055274.7945
sg44
F1.4301181851666862e+28
sg45
F6371000.0
sg46
F0.25373134328358204
sg47
F3.372605579372214
sg48
F-283669020003.09937
sbsg49
F0.0
sg50
F1.0
sg42
F0.1478379888030929
sbag1
(g2
g3
Ntp1164
Rp1165
(dp1166
g7
F10374603794.253096
sg8
F8.30238924e+17
sg9
I0
sg10
F0.0558027159171438
sg11
F3.560695068938099e+30
sg12
F3.931623561988605e+27
sg13
F1030771.0563874001
sg14
g251
sg25
g1
(g26
g3
Ntp1167
Rp1168
(dp1169
g30
F622845972311.958
sg31
(lp1170
F5.67638757258821
aF4.430288834274644
aF2.047984748918193
aF4.742439263242095
aF3.1140281615104404
aF2.192980218769245
aF1.0139434057050745
aF5.542073083062172
aF5.463757206229639
aF1.9875723799704879
asg33
F805454245979.4941
sg34
F0.20866777657220945
sg35
F-429352236777.62683
sg36
(lp1171
I2
aI2
aI2
aI2
aI2
aI2
aI2
aI1
aI2
aI0
asg11
F3.560695068938099e+30
sg38
F479437051178.2703
sg39
F512154816996.32916
sg40
F200349269.52648914
sg41
F67886438162.7592
sg42
F400498089685.3285
sg43
F319223803515.56805
sg44
F3.931623561988605e+27
sg45
F6371000.0
sg46
F0.2537313432835821
sg47
F6.956135263075787
sg48
F-270833241793.1114
sbsg49
F0.0
sg50
F1.0
sg42
F0.3264108345226767
sbag1
(g2
g3
Ntp1172
Rp1173
(dp1174
g7
F413338.53044593957
sg8
F7.10079342e+17
sg9
I0
sg10
F0.036700655865830795
sg11
F5.698382088676695e+30
sg12
F2.2854510770429264e+28
sg13
F365650.35790518473
sg14
g1003
sg25
g1
(g26
g3
Ntp1175
Rp1176
(dp1177
g30
F1417633696824.0974
sg31
(lp1178
F0.5451699669378135
aF5.019265202219676
aF2.93938803729551
aF1.6367967296913015
aF2.733062704239747
aF6.161902128449917
aF5.2858893962856985
aF5.8854513625052105
aF5.3350646222118625
aF1.163224561407032
asg33
F1941962660909.326
sg34
F0.14797526110903123
sg35
F-510368182833.2939
sg36
(lp1179
I1
aI0
aI2
aI2
aI2
aI2
aI1
aI1
aI0
aI2
asg11
F5.698382088676695e+30
sg38
F1155930155303.1704
sg39
F1615126808064.18
sg40
F543819057.4298614
sg41
F-663662358963.7103
sg42
F-1544410720868.0142
sg43
F472683965663.6635
sg44
F2.2854510770429264e+28
sg45
F6371000.0
sg46
F0.25373134328358204
sg47
F2.844584581135815
sg48
F1381199188159.967
sbsg49
F0.0
sg50
F1.0
sg42
F0.1157892800033085
sbag1
(g2
g3
Ntp1180
Rp1181
(dp1182
g7
F154565.0451149963
sg8
F6.99772102e+17
sg9
I0
sg10
F0.07212735463065074
sg11
F5.072677827063836e+30
sg12
F1.5211496053752807e+28
sg13
F441688.1513484253
sg14
g177
sg25
g1
(g26
g3
Ntp1183
Rp1184
(dp1185
g30
F1253341272116.6113
sg31
(lp1186
F4.7799356221019185
aF2.2055346252071613
aF1.0269723309999348
aF0.22611765220729715
aF6.1651985645303355
aF0.700093527004188
aF0.6669021839276227
aF0.6611399504834242
aF0.15468609720022342
aF4.279421059701491
asg33
F1584312596712.5737
sg34
F0.153381268338362
sg35
F337670923038.0303
sg36
(lp1187
I1
aI0
aI0
aI1
aI1
aI0
aI0
aI1
aI0
aI1
asg11
F5.072677827063836e+30
sg38
F943043212328.913
sg39
F1394541458303.0083
sg40
F479147841.0739921
sg41
F-1109454010763.7175
sg42
F-1112822061171.1694
sg43
F-840459956866.852
sg44
F1.5211496053752807e+28
sg45
F6371000.0
sg46
F0.25373134328358204
sg47
F3.788445930594335
sg48
F-774490816382.4971
sbsg49
F0.0
sg50
F1.0
sg42
F0.139867914593668
sbag1
(g2
g3
Ntp1188
Rp1189
(dp1190
g7
F25575267.821436357
sg8
F3.74152812e+17
sg9
I0
sg10
F0.06827703877692436
sg11
F2.417880223867148e+30
sg12
F8.359338834061124e+26
sg13
F1007414.3627488841
sg14
g369
sg25
g1
(g26
g3
Ntp1191
Rp1192
(dp1193
g30
F296177331837.0761
sg31
(lp1194
F4.319020191895377
aF1.0388617952385186
aF5.437668012990304
aF2.677711912216337
aF3.2854813075427187
aF5.876387352844162
aF4.479065551294636
aF0.4978600163084896
aF1.6304191294619579
aF3.346932377711382
asg33
F371399124168.7947
sg34
F0.19859004307883762
sg35
F142586118075.3531
sg36
(lp1195
I1
aI2
aI1
aI1
aI2
aI0
aI1
aI2
aI0
aI0
asg11
F2.417880223867148e+30
sg38
F221070907243.33017
sg39
F288162141713.82904
sg40
F79724994.38615696
sg41
F-131041223777.73514
sg42
F-18457385758.19976
sg43
F287570417164.34235
sg44
F8.359338834061124e+26
sg45
F6371000.0
sg46
F0.25373134328358204
sg47
F14.201262903811646
sg48
F-213388885652.7815
sbsg49
F0.0
sg50
F1.0
sg42
F0.3190145482038133
sbag1
(g2
g3
Ntp1196
Rp1197
(dp1198
g7
F304192.66395196447
sg8
F6.66523538e+17
sg9
I0
sg10
F0.044999844870890204
sg11
F3.800447899294274e+30
sg12
F5.102369773077562e+27
sg13
F726397.9597368819
sg14
g506
sg25
g1
(g26
g3
Ntp1199
Rp1200
(dp1201
g30
F577945470955.2996
sg31
(lp1202
F3.546721749614292
aF1.6866772656042017
aF4.179841808280525
aF5.1005888223859746
aF5.924119849908762
aF4.860551214692681
aF3.689273794374317
aF5.32708957069602
aF3.9218282692816984
aF0.4494937106622905
asg33
F917573527108.2402
sg34
F0.04632352779867493
sg35
F-166120269611.49255
sg36
(lp1203
I1
aI0
aI1
aI0
aI0
aI1
aI1
aI2
aI2
aI0
asg11
F3.800447899294274e+30
sg38
F546174718516.8097
sg39
F551266980078.5883
sg40
F173339312.55911517
sg41
F511133424447.04895
sg42
F549144175414.4425
sg43
F-48331748709.917534
sg44
F5.102369773077562e+27
sg45
F6371000.0
sg46
F0.2537313432835821
sg47
F6.1953986549914815
sg48
F122645675676.74213
sbsg49
F0.0
sg50
F1.0
sg42
F0.23002602058334592
sbag1
(g2
g3
Ntp1204
Rp1205
(dp1206
g7
F16110.46525896885
sg8
F3.81978908e+17
sg9
I0
sg10
F0.05563282473662602
sg11
F3.523179603958404e+30
sg12
F3.7685295853168875e+27
sg13
F484393.7239553224
sg14
g78
sg25
g1
(g26
g3
Ntp1207
Rp1208
(dp1209
g30
F543181344064.1996
sg31
(lp1210
F2.2060492538241183
aF6.145358713976141
aF5.727221125385623
aF1.8278511967240543
aF2.472476937826995
aF3.8770658713199495
aF2.9306522610167973
aF5.241907915215345
aF5.704279466918937
aF4.417705239493202
asg33
F788571133583.125
sg34
F0.0007910982491430825
sg35
F125961812385.80582
sg36
(lp1211
I1
aI2
aI1
aI2
aI0
aI0
aI2
aI2
aI0
aI1
asg11
F3.523179603958404e+30
sg38
F469387579513.76495
sg39
F543235443063.418
sg40
F164034062.49150512
sg41
F-343819996890.7271
sg42
F-68814388043.35153
sg43
F538859282743.2104
sg44
F3.7685295853168875e+27
sg45
F6371000.0
sg46
F0.25373134328358204
sg47
F7.980997957902613
sg48
F-401280672545.8524
sbsg49
F0.0
sg50
F1.0
sg42
F0.15339134591918543
sbag1
(g2
g3
Ntp1212
Rp1213
(dp1214
g7
F25054.25851414993
sg8
F3.47289182e+17
sg9
I0
sg10
F0.0637114868497226
sg11
F2.656041051287773e+30
sg12
F1.2172279865203162e+27
sg13
F774908.4203407058
sg14
g473
sg25
g1
(g26
g3
Ntp1215
Rp1216
(dp1217
g30
F325737841759.3255
sg31
(lp1218
F5.1783345822150215
aF3.6082191371218357
aF4.74497995983558
aF5.2429198710556575
aF0.4773586690162625
aF5.603346399165611
aF5.604133888755066
aF5.561042262828983
aF4.96511862427918
aF2.995793398494628
asg33
F448168032355.75446
sg34
F0.17283958391033702
sg35
F-199271683183.43976
sg36
(lp1219
I1
aI1
aI2
aI1
aI0
aI2
aI2
aI1
aI0
aI1
asg11
F2.656041051287773e+30
sg38
F266766685926.04434
sg39
F272645441774.5327
sg40
F87734235.19539067
sg41
F175661799597.88342
sg42
F250876925863.13367
sg43
F106753477647.7743
sg44
F1.2172279865203162e+27
sg45
F6371000.0
sg46
F0.25373134328358204
sg47
F12.968682731517534
sg48
F-61394343092.031006
sbsg49
F0.014014014014014014
sg50
F1.0
sg42
F0.2453876664412235
sbag1
(g2
g3
Ntp1220
Rp1221
(dp1222
g7
F652269.7314658832
sg8
F6.49137014e+17
sg9
I0
sg10
F0.06570109215649934
sg11
F3.500537892301124e+30
sg12
F3.672585617442991e+27
sg13
F833864.5251961951
sg14
g874
sg25
g1
(g26
g3
Ntp1223
Rp1224
(dp1225
g30
F596321242123.9532
sg31
(lp1226
F3.7312437512379613
aF3.672569779451031
aF5.160495053278057
aF1.9435612327127147
aF0.4038273446667799
aF6.216820764110746
aF6.014597015555968
aF0.42699002934308417
aF4.882594972272376
aF5.403094738837371
asg33
F778468197633.5045
sg34
F0.0969308872386069
sg35
F238425938527.05963
sg36
(lp1227
I0
aI1
aI1
aI2
aI2
aI1
aI1
aI2
aI1
aI0
asg11
F3.500537892301124e+30
sg38
F463373927162.80035
sg39
F552435833177.214
sg40
F189294150.08351165
sg41
F495926268168.5282
sg42
F394947534505.5183
sg43
F386266481546.3737
sg44
F3.672585617442991e+27
sg45
F6371000.0
sg46
F0.25373134328358204
sg47
F7.057471668320015
sg48
F-48944439481.21556
sbsg49
F0.0
sg50
F1.0
sg42
F0.2640570996454618
sbag1
(g2
g3
Ntp1228
Rp1229
(dp1230
g7
F346753.6071965342
sg8
F8.71258036e+17
sg9
I0
sg10
F0.07340008899826557
sg11
F5.60026669123302e+30
sg12
F2.1506608484978244e+28
sg13
F462493.80683556094
sg14
g940
sg25
g1
(g26
g3
Ntp1231
Rp1232
(dp1233
g30
F1457703431306.903
sg31
(lp1234
F4.03197378108016
aF2.695327909875557
aF2.4636025310040193
aF5.670507355129164
aF0.8315423193980789
aF1.881687775944686
aF4.679210333731473
aF2.9451820097515404
aF4.710225221633837
aF0.893080034183633
asg33
F1883826384533.1333
sg34
F0.03348815264075429
sg35
F-1136986252656.376
sg36
(lp1235
I1
aI0
aI0
aI1
aI0
aI0
aI1
aI1
aI0
aI0
asg11
F5.60026669123302e+30
sg38
F1121325228888.7698
sg39
F1499704269218.7122
sg40
F571983596.120737
sg41
F171146069360.4978
sg42
F-1303015701539.9438
sg43
F-742470859127.2792
sg44
F2.1506608484978244e+28
sg45
F6371000.0
sg46
F0.2537313432835821
sg47
F3.659517463308003
sg48
F-962852106673.5507
sbsg49
F0.0
sg50
F1.0
sg42
F0.1464563721645943
sbag1
(g2
g3
Ntp1236
Rp1237
(dp1238
g7
F7282.69773483309
sg8
F3.30689588e+17
sg9
I0
sg10
F0.06957502445561041
sg11
F3.293326457340891e+30
sg12
F2.87721243830169e+27
sg13
F479931.93130173767
sg14
g15
(g19
S'\x0ee\xfcM\x9a\xcc\xe9?'
p1239
tp1240
Rp1241
sg25
g1
(g26
g3
Ntp1242
Rp1243
(dp1244
g30
F559641764001.1755
sg31
(lp1245
F0.032286128764634145
aF4.048627519633881
aF0.9259460560354604
aF0.3283526328092904
aF1.7941436566337503
aF3.19064624886531
aF2.9665476089694702
aF4.604083298171521
aF5.504208029439787
aF5.356128537228966
asg33
F689034353482.2908
sg34
F0.12382068411135742
sg35
F-453922899812.57874
sg36
(lp1246
I0
aI0
aI0
aI2
aI0
aI2
aI0
aI2
aI0
aI2
asg11
F3.293326457340891e+30
sg38
F410139496120.4112
sg39
F497758847007.0962
sg40
F177432000.03130582
sg41
F-127637068118.21107
sg42
F430483283776.49066
sg43
F249896002694.80746
sg44
F2.87721243830169e+27
sg45
F6371000.0
sg46
F0.2537313432835821
sg47
F6.809143952114149
sg48
F159457359948.54697
sbsg49
F0.12012012012012012
sg50
F0.4967979955265082
sg42
F0.15197844491221693
sbag1
(g2
g3
Ntp1247
Rp1248
(dp1249
g7
F103560.64850865131
sg8
F6.02853186e+17
sg9
I0
sg10
F0.07241091077816339
sg11
F5.094081066275877e+30
sg12
F1.5437320795125606e+28
sg13
F377720.6124440898
sg14
g56
sg25
g1
(g26
g3
Ntp1250
Rp1251
(dp1252
g30
F1227881603109.1592
sg31
(lp1253
F5.900914330609037
aF0.7885040860699559
aF2.4057119336087265
aF2.3445662722838163
aF5.865236752085559
aF2.1921513819544103
aF0.713608400849119
aF4.719510522235184
aF4.5483458713204765
aF5.307755475855861
asg33
F1596029356457.835
sg34
F0.04571340918533696
sg35
F1183806344539.3472
sg36
(lp1254
I2
aI1
aI1
aI1
aI2
aI0
aI0
aI0
aI2
aI1
asg11
F5.094081066275877e+30
sg38
F950017474082.0448
sg39
F1272961067836.3062
sg40
F463645423.2720056
sg41
F-85322464718.68169
sg42
F-1042262853228.9719
sg43
F730833787537.1877
sg44
F1.5437320795125606e+28
sg45
F6371000.0
sg46
F0.253731343283582
sg47
F2.530062369080306
sg48
F-460165726526.50494
sbsg49
F0.0
sg50
F1.0
sg42
F0.11961152727396177
sbag1
(g2
g3
Ntp1255
Rp1256
(dp1257
g7
F302832.5856797837
sg8
F8.65394636e+17
sg9
I0
sg10
F0.07221678367091731
sg11
F4.942230480478264e+30
sg12
F1.3885832720518801e+28
sg13
F571706.7550879909
sg14
g418
sg25
g1
(g26
g3
Ntp1258
Rp1259
(dp1260
g30
F1261653264999.969
sg31
(lp1261
F2.371553766556417
aF4.317902523854429
aF1.3230102501414278
aF0.40996150877666404
aF3.1239174270359653
aF5.877298526703283
aF5.407232111222821
aF3.765737958019103
aF2.81410707809658
aF4.357007272140096
asg33
F1513703709634.8596
sg34
F0.056085432580258984
sg35
F-1251578207800.1614
sg36
(lp1262
I2
aI0
aI0
aI0
aI1
aI0
aI0
aI0
aI0
aI1
asg11
F4.942230480478264e+30
sg38
F901014112877.8927
sg39
F1315169377112.415
sg40
F490267032.78575563
sg41
F-108253602440.996
sg42
F-1024949534669.1638
sg43
F-824104933777.078
sg44
F1.3885832720518801e+28
sg45
F6371000.0
sg46
F0.25373134328358204
sg47
F3.818794832759698
sg48
F389234682180.9963
sbsg49
F0.0
sg50
F1.0
sg42
F0.18104047244453045
sbag1
(g2
g3
Ntp1263
Rp1264
(dp1265
g7
F655315.1534531335
sg8
F8.36086894e+17
sg9
I0
sg10
F0.0387031760078767
sg11
F5.918459895561095e+30
sg12
F2.6095878946988066e+28
sg13
F402912.3137980781
sg14
g15
(g19
S'\xbc\x18\tA\x13\xc4\xeb?'
p1266
tp1267
Rp1268
sg25
g1
(g26
g3
Ntp1269
Rp1270
(dp1271
g30
F1376026433752.2952
sg31
(lp1272
F1.859133897416667
aF3.9457037094697234
aF1.4672400144205138
aF0.8071789208978116
aF2.1895869156566925
aF5.729342350433585
aF3.8885812309064183
aF6.0342666922605215
aF5.156183693767341
aF3.160524348760883
asg33
F2075108814914.5273
sg34
F0.039383687714719784
sg35
F-845248818656.2861
sg36
(lp1273
I1
aI1
aI2
aI0
aI1
aI0
aI1
aI2
aI1
aI2
asg11
F5.918459895561095e+30
sg38
F1235183818401.5044
sg39
F1425075127940.7559
sg40
F510293427.8914369
sg41
F-506961542308.11145
sg42
F-1299599330681.318
sg43
F584705652416.694
sg44
F2.6095878946988066e+28
sg45
F6371000.0
sg46
F0.2537313432835821
sg47
F2.7188117070167297
sg48
F-1029263595711.0767
sbsg49
F0.0
sg50
F1.0
sg42
F0.1275888993693914
sbag1
(g2
g3
Ntp1274
Rp1275
(dp1276
g7
F151251.5124364109
sg8
F6.95201736e+17
sg9
I0
sg10
F0.06208914985519701
sg11
F4.214830728859109e+30
sg12
F7.95374986924633e+27
sg13
F606834.0936267556
sg14
g885
sg25
g1
(g26
g3
Ntp1277
Rp1278
(dp1279
g30
F964038300168.7649
sg31
(lp1280
F4.880032909566904
aF4.28424053095985
aF3.798801850663837
aF4.120432974195658
aF0.6183113950810512
aF0.32403049779670445
aF0.17202026844890905
aF5.0850064827827435
aF4.890921697789427
aF4.547270136339573
asg33
F1145620760766.9395
sg34
F0.06409650299889905
sg35
F-624975568238.7755
sg36
(lp1281
I0
aI0
aI1
aI1
aI0
aI1
aI2
aI2
aI0
aI0
asg11
F4.214830728859109e+30
sg38
F681917119504.1306
sg39
F961598742934.9219
sg40
F354597384.4676922
sg41
F-415459126682.2614
sg42
F-23730792189.02933
sg43
F-961305878436.2566
sg44
F7.95374986924633e+27
sg45
F6371000.0
sg46
F0.2537313432835821
sg47
F4.687707998003175
sg48
F601224912636.7389
sbsg49
F0.0
sg50
F1.0
sg42
F0.19216412964847263
sbag1
(g2
g3
Ntp1282
Rp1283
(dp1284
g7
F249719.94927342684
sg8
F7.10897132e+17
sg9
I0
sg10
F0.04024052317121198
sg11
F4.499072533064971e+30
sg12
F9.99474985225095e+27
sg13
F553561.5119939066
sg14
g484
sg25
g1
(g26
g3
Ntp1285
Rp1286
(dp1287
g30
F982875495706.2683
sg31
(lp1288
F5.495294896410863
aF3.2492783487607064
aF2.9960813976147587
aF2.950722470614888
aF2.2584883728222414
aF2.8837511757269643
aF4.7818188034561855
aF5.8611898667338975
aF4.088044089718365
aF0.9735210177561536
asg33
F1284224276068.9355
sg34
F0.06319813160493405
sg35
F738571243118.3029
sg36
(lp1289
I1
aI0
aI0
aI1
aI2
aI0
aI1
aI0
aI0
aI0
asg11
F4.499072533064971e+30
sg38
F764419211945.795
sg39
F1044827754507.479
sg40
F353321795.2606251
sg41
F-288162463585.64166
sg42
F-1042402134852.7158
sg43
F-71153537112.6499
sg44
F9.99474985225095e+27
sg45
F6371000.0
sg46
F0.25373134328358204
sg47
F3.2097461364465834
sg48
F680543863397.562
sbsg49
F0.0
sg50
F1.0
sg42
F0.17529447879807042
sbag1
(g2
g3
Ntp1290
Rp1291
(dp1292
g7
F110793.257307888
sg8
F1.83101638e+17
sg9
I0
sg10
F0.07306279469627895
sg11
F1.7267711462122567e+30
sg12
F2.174562673680723e+26
sg13
F966610.1567062042
sg14
g15
(g19
S'\xf3\xeb\x1c\xd1\xe5p\x9f?'
p1293
tp1294
Rp1295
sg25
g1
(g26
g3
Ntp1296
Rp1297
(dp1298
g30
F130395867289.86664
sg31
(lp1299
F4.1766186106850975
aF4.798444701236298
aF6.266682064954008
aF3.9674653368388637
aF0.5650958617415883
aF2.0688532106278736
aF3.8443631938990945
aF0.5360686381786962
aF0.5987852104623262
aF0.7532962793724719
asg33
F189426561193.9486
sg34
F0.03372793141250789
sg35
F18565038691.552265
sg36
(lp1300
I1
aI1
aI0
aI1
aI1
aI1
aI1
aI2
aI0
aI0
asg11
F1.7267711462122567e+30
sg38
F112753905472.58844
sg39
F126057989255.8994
sg40
F27558940.277764887
sg41
F73124349079.88103
sg42
F124215835183.82776
sg43
F-21471910600.237404
sg44
F2.174562673680723e+26
sg45
F6371000.0
sg46
F0.25373134328358216
sg47
F37.527943640644
sg48
F100989036856.80602
sbsg49
F0.013013013013013013
sg50
F1.0
sg42
F0.306093216290298
sbag1
(g2
g3
Ntp1301
Rp1302
(dp1303
g7
F39189205.66436192
sg8
F5.35578386e+17
sg9
I0
sg10
F0.05984670606183198
sg11
F2.912961757815061e+30
sg12
F1.7610509829542335e+27
sg13
F993532.7030580243
sg14
g495
sg25
g1
(g26
g3
Ntp1304
Rp1305
(dp1306
g30
F351645970120.10284
sg31
(lp1307
F1.6272684428095445
aF0.858202411681235
aF2.065570023163893
aF2.8838455689911897
aF2.850836161681993
aF1.5501887588261256
aF3.026164642528605
aF4.637286547211382
aF5.1768577334830805
aF0.5660881111774699
asg33
F539064677339.28345
sg34
F0.015549916156681104
sg35
F-122193635821.76689
sg36
(lp1308
I2
aI1
aI0
aI2
aI0
aI0
aI1
aI1
aI0
aI2
asg11
F2.912961757815061e+30
sg38
F320871831749.5735
sg39
F349632673691.80743
sg40
F93966973.62803897
sg41
F255501276795.91956
sg42
F124005071866.6332
sg43
F-326903271112.7758
sg44
F1.7610509829542335e+27
sg45
F6371000.0
sg46
F0.2537313432835821
sg47
F11.35813799153963
sg48
F-205014193248.16074
sbsg49
F0.0
sg50
F1.0
sg42
F0.3146186893017077
sbag1
(g2
g3
Ntp1309
Rp1310
(dp1311
g7
F4677339.144386971
sg8
F7.86843592e+17
sg9
I0
sg10
F0.0537739639486881
sg11
F3.7225006574262686e+30
sg12
F4.696474072555565e+27
sg13
F893814.7907696638
sg14
g591
sg25
g1
(g26
g3
Ntp1312
Rp1313
(dp1314
g30
F682101701879.6198
sg31
(lp1315
F0.9960573336445443
aF3.3385577183359003
aF3.7981761760687265
aF6.124917707837432
aF5.436582589073883
aF3.412151562717723
aF2.6868028889845217
aF5.197381663030859
aF3.6894917047785256
aF2.0639959210123253
asg33
F880320621369.9474
sg34
F0.0930597432886583
sg35
F62312771643.70593
sg36
(lp1316
I0
aI1
aI0
aI0
aI0
aI2
aI1
aI1
aI0
aI1
asg11
F3.7225006574262686e+30
sg38
F524000369863.064
sg39
F620230890061.2391
sg40
F224564174.23055753
sg41
F-411795879161.08936
sg42
F601374236600.2849
sg43
F-151774123418.91946
sg44
F4.696474072555565e+27
sg45
F6371000.0
sg46
F0.253731343283582
sg47
F6.035969005817016
sg48
F459595071103.01086
sbsg49
F0.0
sg50
F1.0
sg42
F0.2830413504103935
sbag1
(g2
g3
Ntp1317
Rp1318
(dp1319
g7
F64287.725950660795
sg8
F4.5970599e+17
sg9
I0
sg10
F0.04555118770286506
sg11
F4.6105375798998594e+30
sg12
F1.088859711931062e+28
sg13
F342956.696657633
sg14
g24
sg25
g1
(g26
g3
Ntp1320
Rp1321
(dp1322
g30
F968756425622.9543
sg31
(lp1323
F5.765093857293361
aF2.3613508566023618
aF2.6833514009485753
aF1.8290190505000352
aF2.299323506064272
aF5.847606385929919
aF2.087100147022978
aF1.074849856841095
aF1.0972706096071339
aF2.5703267701278785
asg33
F1340419926131.128
sg34
F0.09884098196236334
sg35
F59629961813.062195
sg36
(lp1324
I1
aI1
aI0
aI0
aI2
aI0
aI1
aI1
aI1
aI1
asg11
F4.6105375798998594e+30
sg38
F797869003649.4808
sg39
F884815365578.5472
sg40
F341531114.54103214
sg41
F489150275879.1672
sg42
F753500766495.885
sg43
F-463826288662.0507
sg44
F1.088859711931062e+28
sg45
F6371000.0
sg46
F0.2537313432835821
sg47
F5.731401818418691
sg48
F734897616287.742
sbsg49
F0.0
sg50
F1.0
sg42
F0.10860295394158379
sbag1
(g2
g3
Ntp1325
Rp1326
(dp1327
g7
F216701.48633431213
sg8
F7.74403926e+17
sg9
I0
sg10
F0.07211435831013811
sg11
F5.194251750622034e+30
sg12
F1.652615908634692e+28
sg13
F468950.1410229629
sg14
g992
sg25
g1
(g26
g3
Ntp1328
Rp1329
(dp1330
g30
F1387071015651.2812
sg31
(lp1331
F2.798900061995513
aF5.773328478134418
aF1.4032560855349545
aF2.869941729959921
aF2.6590566238160203
aF0.09449320422973628
aF1.5952073947347563
aF4.458795578863724
aF5.165352195874351
aF4.793593524846422
asg33
F1651356633160.8801
sg34
F0.029571292285351464
sg35
F-531446969852.6085
sg36
(lp1332
I0
aI1
aI1
aI1
aI2
aI2
aI2
aI0
aI1
aI0
asg11
F5.194251750622034e+30
sg38
F982950376881.4763
sg39
F1378080356976.3003
sg40
F551278064.4091718
sg41
F1256407854384.0776
sg42
F263015854645.41232
sg43
F-1352748361850.448
sg44
F1.652615908634692e+28
sg45
F6371000.0
sg46
F0.25373134328358204
sg47
F4.904423785020927
sg48
F195214989077.18427
sbsg49
F0.0
sg50
F1.0
sg42
F0.14850087799060493
sbag1
(g2
g3
Ntp1333
Rp1334
(dp1335
g7
F2618.725406807789
sg8
F2.5646202999999997e+17
sg9
I0
sg10
F0.0717329231020132
sg11
F2.5201986995221123e+30
sg12
F9.866700126247213e+26
sg13
F635597.529242324
sg14
g166
sg25
g1
(g26
g3
Ntp1336
Rp1337
(dp1338
g30
F357522573677.4929
sg31
(lp1339
F1.3606969387517174
aF5.6546438513414445
aF4.18722643723373
aF5.2047009636150205
aF6.162873363255138
aF3.6398636934699877
aF0.03263675879505505
aF5.8335273315983045
aF1.1252134980509478
aF5.7779249958726755
asg33
F403497525085.9146
sg34
F0.06582292163977575
sg35
F-262400487812.04477
sg36
(lp1340
I2
aI2
aI1
aI0
aI1
aI1
aI0
aI2
aI1
aI0
asg11
F2.5201986995221123e+30
sg38
F240177098265.42538
sg39
F348492708466.77203
sg40
F103567137.93545796
sg41
F1735721466.300293
sg42
F113651025176.92928
sg43
F-329439846300.86804
sg44
F9.866700126247213e+26
sg45
F6371000.0
sg46
F0.25373134328358204
sg47
F11.327772317341372
sg48
F-229325400079.23013
sbsg49
F0.36736736736736736
sg50
F1.0
sg42
F0.2012725509267359
sbag1
(g2
g3
Ntp1341
Rp1342
(dp1343
g7
F2114.257211201914
sg8
F1.56873724e+17
sg9
I0
sg10
F0.07310334924193326
sg11
F1.7129109400098685e+30
sg12
F2.105580883977302e+26
sg13
F841606.984553395
sg14
g15
(g19
S'\xba@\xde\xd0}\xfa\xc7?'
p1344
tp1345
Rp1346
sg25
g1
(g26
g3
Ntp1347
Rp1348
(dp1349
g30
F119375356908.53226
sg31
(lp1350
F5.537866049831259
aF1.5263785369841472
aF0.9403463499534375
aF2.825278215200989
aF3.1905295693605504
aF1.6274725868687752
aF4.980282829256348
aF5.1804610880736295
aF5.418886014182381
aF0.45859651253845335
asg33
F186397839940.98648
sg34
F0.010233769961032313
sg35
F-97299441073.02728
sg36
(lp1351
I0
aI0
aI1
aI2
aI2
aI0
aI2
aI1
aI2
aI1
asg11
F1.7129109400098685e+30
sg38
F110951095202.96815
sg39
F120427272594.57248
sg40
F24237554.426760517
sg41
F70340987985.9085
sg42
F-104010338018.77518
sg43
F-60700721328.39607
sg44
F2.105580883977302e+26
sg45
F6371000.0
sg46
F0.25373134328358204
sg47
F41.36897995164143
sg48
F9364409250.467232
sbsg49
F0.30430430430430433
sg50
F1.0
sg42
F0.2665088784419084
sbag1
(g2
g3
Ntp1352
Rp1353
(dp1354
g7
F385620.72741886775
sg8
F9.16542e+17
sg9
I0
sg10
F0.07349516762549187
sg11
F5.397699577044965e+30
sg12
F1.8904793118962024e+28
sg13
F518933.24680601904
sg14
g15
(g19
S'\x93\xcb\x90\xf6\xf5\x81\xe8?'
p1355
tp1356
Rp1357
sg25
g1
(g26
g3
Ntp1358
Rp1359
(dp1360
g30
F1615740728359.8848
sg31
(lp1361
F4.082907954253139
aF2.141431442877529
aF5.931676390248785
aF0.9695830160386453
aF1.2095357315114303
aF4.515948350414285
aF3.4450297905197593
aF1.34797410258004
aF2.1275531785394213
aF5.570801630777522
asg33
F1766204045782.8096
sg34
F0.02129251855495147
sg35
F1151071923215.9062
sg36
(lp1362
I1
aI2
aI0
aI1
aI2
aI0
aI1
aI1
aI1
aI2
asg11
F5.397699577044965e+30
sg38
F1051311932013.577
sg39
F1638744178045.329
sg40
F679887910.0119379
sg41
F267323461771.62323
sg42
F-1114756818159.282
sg43
F1201165982470.722
sg44
F1.8904793118962024e+28
sg45
F6371000.0
sg46
F0.2537313432835821
sg47
F2.3189008891623994
sg48
F1135365172729.872
sbsg49
F0.0
sg50
F1.0
sg42
F0.1643288614885727
sbag1
(g2
g3
Ntp1363
Rp1364
(dp1365
g7
F690551.4634391807
sg8
F8.21838832e+17
sg9
I0
sg10
F0.045825375964398396
sg11
F4.1849899885029304e+30
sg12
F7.75839575423484e+27
sg13
F726349.7353552843
sg14
g506
sg25
g1
(g26
g3
Ntp1366
Rp1367
(dp1368
g30
F880804975754.0762
sg31
(lp1369
F2.6159714594070276
aF3.708833926635881
aF4.4588036587221715
aF5.696283174316782
aF1.4104331839624193
aF1.1673074993054333
aF2.3138502690219465
aF6.261426023273128
aF5.464576891979145
aF2.906283738546599
asg33
F1131464351120.068
sg34
F0.00748747434302134
sg35
F-751153887843.62
sg36
(lp1370
I1
aI2
aI2
aI1
aI1
aI1
aI2
aI2
aI2
aI2
asg11
F4.1849899885029304e+30
sg38
F673490685190.5167
sg39
F881783227563.6101
sg40
F310782525.5510638
sg41
F121182665306.1314
sg42
F-137246779169.84517
sg43
F-871036728284.1759
sg44
F7.75839575423484e+27
sg45
F6371000.0
sg46
F0.2537313432835821
sg47
F4.55610673316431
sg48
F445672815885.3915
sbsg49
F0.0
sg50
F1.0
sg42
F0.23001074952917336
sbag1
(g2
g3
Ntp1371
Rp1372
(dp1373
g7
F2993.2354281290022
sg8
F2.4865136399999997e+17
sg9
I0
sg10
F0.06416925509306744
sg11
F2.4084341862559188e+30
sg12
F8.22947118857046e+26
sg13
F674760.9961131165
sg14
g462
sg25
g1
(g26
g3
Ntp1374
Rp1375
(dp1376
g30
F223376025679.33487
sg31
(lp1377
F4.369265681068027
aF4.330892304661176
aF4.836571919553706
aF3.5593055485434792
aF6.18197667168644
aF2.9804790625272983
aF5.869370933875114
aF1.0041236314578335
aF5.658901737848316
aF2.8658601929048806
asg33
F368502870545.7602
sg34
F9.813340921745039e-05
sg35
F53523362906.75104
sg36
(lp1378
I2
aI1
aI1
aI2
aI0
aI2
aI0
aI1
aI1
aI2
asg11
F2.4084341862559188e+30
sg38
F219346946753.42868
sg39
F223374034762.17548
sg40
F52320467.06252578
sg41
F102428406230.07239
sg42
F20265942323.172947
sg43
F222452806203.22012
sg44
F8.22947118857046e+26
sg45
F6371000.0
sg46
F0.2537313432835821
sg47
F20.329500828067033
sg48
F191153421696.42963
sbsg49
F0.28428428428428426
sg50
F0.7818097687035486
sg42
F0.21367431543582022
sbag1
(g2
g3
Ntp1379
Rp1380
(dp1381
g7
F56859.58458433287
sg8
F5.72224636e+17
sg9
I0
sg10
F0.07348740100674821
sg11
F3.933098139240535e+30
sg12
F5.852911119532038e+27
sg13
F582271.6914035655
sg14
g15
(g19
S'\xe2\xc3g\xce1,\xe6?'
p1382
tp1383
Rp1384
sg25
g1
(g26
g3
Ntp1385
Rp1386
(dp1387
g30
F789347030152.1965
sg31
(lp1388
F4.597483340623452
aF1.448799030942571
aF5.4866791960969525
aF2.821197265663615
aF1.5131701053566466
aF1.4059224143986286
aF3.557621938339885
aF2.7675833891575397
aF5.790064750829916
aF2.534281570479109
asg33
F982745073215.998
sg34
F0.13245478242298395
sg35
F497639440444.1902
sg36
(lp1389
I2
aI1
aI2
aI1
aI0
aI2
aI1
aI1
aI0
aI0
asg11
F3.933098139240535e+30
sg38
F584967305485.7131
sg39
F737735059568.4213
sg40
F271968584.99738604
sg41
F-147058719530.03378
sg42
F285104493445.79346
sg43
F-680417846571.825
sg44
F5.852911119532038e+27
sg45
F6371000.0
sg46
F0.2537313432835821
sg47
F5.109178388994484
sg48
F-524387012082.6813
sbsg49
F0.0
sg50
F1.0
sg42
F0.18438603561112907
sbag1
(g2
g3
Ntp1390
Rp1391
(dp1392
g7
F173351.33172090442
sg8
F7.39692598e+17
sg9
I0
sg10
F0.07337291815186235
sg11
F4.9800910223230054e+30
sg12
F1.4261720768501592e+28
sg13
F482181.33777823625
sg14
g78
sg25
g1
(g26
g3
Ntp1393
Rp1394
(dp1395
g30
F1282414954300.4165
sg31
(lp1396
F1.0787902663830637
aF3.0893476569750074
aF2.9775047553839356
aF3.0934119578980868
aF3.386334115936399
aF3.9832100827957975
aF6.118661320498911
aF0.9642431273060341
aF4.651905239645462
aF3.138168503532073
asg33
F1534054804792.544
sg34
F0.061082702275214486
sg35
F-669411027025.0869
sg36
(lp1397
I0
aI0
aI1
aI0
aI1
aI0
aI0
aI1
aI2
aI0
asg11
F4.9800910223230054e+30
sg38
F913127859995.562
sg39
F1360293680970.2097
sg40
F500504958.739623
sg41
F-1102918069294.2725
sg42
F-1353305233075.5415
sg43
F137709275714.58868
sg44
F1.4261720768501592e+28
sg45
F6371000.0
sg46
F0.25373134328358204
sg47
F3.0401839736774847
sg48
F431114263054.34955
sbsg49
F0.0
sg50
F1.0
sg42
F0.15269075696310816
sbag1
(g2
g3
Ntp1398
Rp1399
(dp1400
g7
F1487782.5037829194
sg8
F2.36964682e+17
sg9
I0
sg10
F0.03422080666065981
sg11
F5.414771541017087e+30
sg12
F1.911489554425327e+28
sg13
F133426.70061511712
sg14
g1131
sg25
g1
(g26
g3
Ntp1401
Rp1402
(dp1403
g30
F1571993727450.52
sg31
(lp1404
F1.6748684091560433
aF5.884639941109403
aF5.508342665330537
aF0.029836019234175334
aF1.5491207840089047
aF1.3706088729659618
aF5.794617460646791
aF3.7645727524779873
aF6.249967489284256
aF3.887964461885669
asg33
F1775991468780.6655
sg34
F0.10618164050713359
sg35
F1191064403674.6113
sg36
(lp1405
I0
aI1
aI2
aI2
aI2
aI1
aI1
aI2
aI1
aI2
asg11
F5.414771541017087e+30
sg38
F1057137779036.1105
sg39
F1661141804678.8137
sg40
F651433830.3529667
sg41
F-137795954716.91974
sg42
F-1006497772168.0104
sg43
F1321497003353.552
sg44
F1.911489554425327e+28
sg45
F6371000.0
sg46
F0.2537313432835821
sg47
F2.2217020581717484
sg48
F1149682545929.302
sbsg49
F0.0
sg50
F1.0
sg42
F0.04225178852812042
sbag1
(g2
g3
Ntp1406
Rp1407
(dp1408
g7
F1790616.9499196988
sg8
F5.92777396e+17
sg9
I0
sg10
F0.06392096269155627
sg11
F3.2087418834241483e+30
sg12
F2.592817379624947e+27
sg13
F906255.7171674569
sg14
g15
(g19
S"\x86g\xa7\x90'^\xb7?"
p1409
tp1410
Rp1411
sg25
g1
(g26
g3
Ntp1412
Rp1413
(dp1414
g30
F548456143074.51685
sg31
(lp1415
F4.294471631220581
aF0.08369993558306306
aF4.986342346879003
aF0.8286713883361744
aF1.0610663530882027
aF4.958457441288456
aF3.082042633529065
aF0.224213037734084
aF5.032432395011963
aF1.7502425418419154
asg33
F654095069162.9869
sg34
F0.16607416660719118
sg35
F-341860999893.5303
sg36
(lp1416
I2
aI2
aI0
aI2
aI0
aI0
aI0
aI0
aI1
aI1
asg11
F3.2087418834241483e+30
sg38
F389342303073.20654
sg39
F457782454755.02734
sg40
F174393233.66369298
sg41
F180825920457.01727
sg42
F454898703150.6931
sg43
F-51302492662.21085
sg44
F2.592817379624947e+27
sg45
F6371000.0
sg46
F0.25373134328358204
sg47
F6.170881986773909
sg48
F-244944522543.79315
sbsg49
F0.0
sg50
F1.0
sg42
F0.286980977103028
sbag1
(g2
g3
Ntp1417
Rp1418
(dp1419
g7
F100123632.93739207
sg8
F8.91650324e+17
sg9
I0
sg10
F0.04506897656361191
sg11
F3.8021984732838165e+30
sg12
F5.111777347576467e+27
sg13
F970853.4907157173
sg14
g1295
sg25
g1
(g26
g3
Ntp1420
Rp1421
(dp1422
g30
F805817129078.0752
sg31
(lp1423
F6.0111411372867565
aF3.3147203787625235
aF6.0937658358166855
aF3.2233563823479896
aF4.264552550510682
aF5.2280910212199
aF4.334169358858956
aF1.958238162304704
aF2.3890235933641857
aF0.9616082947685083
asg33
F918419032868.3595
sg34
F0.10427138624058808
sg35
F-786888160926.0403
sg36
(lp1424
I0
aI0
aI1
aI1
aI2
aI1
aI2
aI0
aI2
aI1
asg11
F3.8021984732838165e+30
sg38
F546677995754.97595
sg39
F802479400602.3068
sg40
F285312970.25867635
sg41
F96325742620.21991
sg42
F-52013655657.712074
sg43
F-800791963006.7216
sg44
F5.111777347576467e+27
sg45
F6371000.0
sg46
F0.25373134328358204
sg47
F4.647527322790969
sg48
F124505268539.66968
sbsg49
F0.0
sg50
F1.0
sg42
F0.3074369387266438
sbag1
(g2
g3
Ntp1425
Rp1426
(dp1427
g7
F583441.5148434176
sg8
F8.34503776e+17
sg9
I0
sg10
F0.03892394776286355
sg11
F5.653572877490845e+30
sg12
F2.2231661902715817e+28
sg13
F435699.87052709766
sg14
g15
(g19
S'\x7f0H\x929\x08\xeb?'
p1428
tp1429
Rp1430
sg25
g1
(g26
g3
Ntp1431
Rp1432
(dp1433
g30
F1444455453751.0012
sg31
(lp1434
F3.5210320045821573
aF0.37175159208911135
aF0.9776115494965448
aF2.289161517843108
aF4.808207807817674
aF4.373789425801861
aF4.598662261201842
aF4.679590833840582
aF4.767721156492718
aF6.207042222739945
asg33
F1915317934316.6672
sg34
F0.20611729597622985
sg35
F489624529401.39795
sg36
(lp1435
I0
aI2
aI2
aI0
aI0
aI1
aI0
aI1
aI2
aI1
asg11
F5.653572877490845e+30
sg38
F1140070198998.016
sg39
F1580354104604.522
sg40
F561537670.9330708
sg41
F892644957064.6608
sg42
F-957054021588.4835
sg43
F-1257603552675.3535
sg44
F2.2231661902715817e+28
sg45
F6371000.0
sg46
F0.2537313432835821
sg47
F4.061876040233161
sg48
F-1208706704199.0999
sbsg49
F0.0
sg50
F1.0
sg42
F0.13797162566691426
sbag1
(g2
g3
Ntp1436
Rp1437
(dp1438
g7
F428696.1941042082
sg8
F7.85640052e+17
sg9
I0
sg10
F0.03535183940830668
sg11
F4.929241970652567e+30
sg12
F1.3758526640927284e+28
sg13
F521414.06319518667
sg14
g1357
sg25
g1
(g26
g3
Ntp1439
Rp1440
(dp1441
g30
F1400438371426.176
sg31
(lp1442
F4.013347596844502
aF2.884413534116643
aF3.185624225294199
aF3.7715101692664894
aF2.3891177642304693
aF4.045337944394822
aF1.4253103340745539
aF1.1605501019191196
aF2.601839231785947
aF0.46284912500947467
asg33
F1506748872835.6426
sg34
F0.03430496959982278
sg35
F-899597582169.9321
sg36
(lp1443
I2
aI2
aI0
aI0
aI2
aI2
aI1
aI0
aI0
aI1
asg11
F4.929241970652567e+30
sg38
F896874329068.8348
sg39
F1436956776833.7053
sg40
F574103372.5010229
sg41
F939683897313.2461
sg42
F-1112564303561.6152
sg43
F909420391748.9254
sg44
F1.3758526640927284e+28
sg45
F6371000.0
sg46
F0.2537313432835821
sg47
F2.456326073025273
sg48
F-610379506350.3625
sbsg49
F0.0
sg50
F1.0
sg42
F0.16511445334514244
sbag1
(g2
g3
Ntp1444
Rp1445
(dp1446
g7
F1734584.6876327056
sg8
F5.3400143999999994e+17
sg9
I0
sg10
F0.06551266291552599
sg11
F3.018108045933815e+30
sg12
F2.0294199675651392e+27
sg13
F922787.1811330982
sg14
g67
sg25
g1
(g26
g3
Ntp1447
Rp1448
(dp1449
g30
F488320201077.817
sg31
(lp1450
F1.5997731029301185
aF1.6214148632263523
aF4.952420846243133
aF1.0084586907220163
aF5.766201333884561
aF0.40699043352774117
aF2.3849032582312586
aF5.745578117436213
aF0.7542505009857421
aF1.5645366043474012
asg33
F578683201195.2041
sg34
F0.166635973005907
sg35
F350361655351.8697
sg36
(lp1451
I1
aI2
aI2
aI1
aI2
aI0
aI2
aI0
aI0
aI1
asg11
F3.018108045933815e+30
sg38
F344454286425.71674
sg39
F535844488761.37756
sg40
F151068462.3975952
sg41
F148944299119.28482
sg42
F-366569960616.1875
sg43
F390839839460.8574
sg44
F2.0294199675651392e+27
sg45
F6371000.0
sg46
F0.25373134328358204
sg47
F8.607347498048592
sg48
F377083044374.7168
sbsg49
F0.0
sg50
F1.0
sg42
F0.2922159406921478
sbag1
(g2
g3
Ntp1452
Rp1453
(dp1454
g7
F386007.7193456149
sg8
F9.21744996e+17
sg9
I0
sg10
F0.07348109812721142
sg11
F5.288036247269746e+30
sg12
F1.7594297417814524e+28
sg13
F540965.9289897826
sg14
g15
(g19
S'\xff\xb2\xa4\xb8|\xc4\xe7?'
p1455
tp1456
Rp1457
sg25
g1
(g26
g3
Ntp1458
Rp1459
(dp1460
g30
F1178716142444.3403
sg31
(lp1461
F5.344913551294591
aF1.2185197936563201
aF5.651124128044395
aF4.27483726561529
aF0.3032520207178165
aF6.115830968010469
aF5.538466703710717
aF2.2403610138924956
aF1.8083664938967294
aF2.8905349841297743
asg33
F1703887336715.08
sg34
F0.09662521664484863
sg35
F233519114563.40652
sg36
(lp1462
I0
aI0
aI0
aI0
aI0
aI2
aI2
aI0
aI0
aI0
asg11
F5.288036247269746e+30
sg38
F1014218652806.5955
sg39
F1285585681007.8118
sg40
F428006928.5727853
sg41
F891261492291.4893
sg42
F-1219914907797.7441
sg43
F405633037294.96783
sg44
F1.7594297417814524e+28
sg45
F6371000.0
sg46
F0.253731343283582
sg47
F2.8205839233327925
sg48
F-896578116342.4575
sbsg49
F0.0
sg50
F1.0
sg42
F0.17130587751343115
sbag1
(g2
g3
Ntp1463
Rp1464
(dp1465
g7
F38287.02604169447
sg8
F4.7911693e+17
sg9
I0
sg10
F0.05585917725351002
sg11
F3.4924868785620976e+30
sg12
F3.638915150116244e+27
sg13
F618301.9868132281
sg14
g550
sg25
g1
(g26
g3
Ntp1466
Rp1467
(dp1468
g30
F586373647274.2166
sg31
(lp1469
F3.6607077492269746
aF0.640222449456375
aF0.5096715538711227
aF0.6563879098563661
aF4.223621048480234
aF4.47667553164364
aF5.003036633085826
aF4.180731482381827
aF0.5226101029072682
aF0.015263844678962269
asg33
F774891461160.2694
sg34
F0.1989163158040695
sg35
F-172434877113.98395
sg36
(lp1470
I0
aI1
aI2
aI2
aI2
aI2
aI1
aI2
aI0
aI2
asg11
F3.4924868785620976e+30
sg38
F461244917357.3033
sg39
F483795888559.45215
sg40
F184789988.67537707
sg41
F270714388297.41797
sg42
F399043695456.8507
sg43
F-273537183766.97897
sg44
F3.638915150116244e+27
sg45
F6371000.0
sg46
F0.253731343283582
sg47
F5.682269713141078
sg48
F-361992258080.8461
sbsg49
F0.0
sg50
F1.0
sg42
F0.19579562915752224
sbag1
(g2
g3
Ntp1471
Rp1472
(dp1473
g7
F18529243283.13402
sg8
F5.65824272e+17
sg9
I0
sg10
F0.05989650832078947
sg11
F2.9257336257491875e+30
sg12
F1.792139982864866e+27
sg13
F1040496.6782292115
sg14
g572
sg25
g1
(g26
g3
Ntp1474
Rp1475
(dp1476
g30
F476054782193.8043
sg31
(lp1477
F2.7470162522445025
aF5.294957224708836
aF2.9322478177000355
aF5.662188057460497
aF5.962068908529478
aF0.6532494087067385
aF1.013373616391333
aF5.741820692683615
aF1.8128821511752813
aF5.675081604345785
asg33
F543802093595.29956
sg34
F0.01998235083802565
sg35
F194866371690.5526
sg36
(lp1478
I1
aI2
aI2
aI1
aI2
aI2
aI2
aI2
aI1
aI0
asg11
F2.9257336257491875e+30
sg38
F323691722378.15454
sg39
F485265958847.8272
sg40
F147690367.46732712
sg41
F387763407412.8828
sg42
F-470478309217.7259
sg43
F-118883183723.06064
sg44
F1.792139982864866e+27
sg45
F6371000.0
sg46
F0.25373134328358204
sg47
F9.672282825398083
sg48
F217139788781.81503
sbsg49
F0.0
sg50
F1.0
sg42
F0.3294906147725836
sbag1
(g2
g3
Ntp1479
Rp1480
(dp1481
g7
F18141.330722261144
sg8
F1.5829637e+17
sg9
I0
sg10
F0.04993982006907647
sg11
F3.6528747649198603e+30
sg12
F4.3548372501320916e+27
sg13
F186736.87238340318
sg14
g15
(g19
S'\xc0\x07W\xe4\x92\xb9\xd6?'
p1482
tp1483
Rp1484
sg25
g1
(g26
g3
Ntp1485
Rp1486
(dp1487
g30
F612386107381.5582
sg31
(lp1488
F4.651016588302078
aF5.458411359482876
aF5.535041724694579
aF4.339881473099331
aF2.1418633572232952
aF5.061516100893552
aF0.8156669853154352
aF2.653967931646997
aF5.242696908589668
aF5.390219126943202
asg33
F847697447106.1619
sg34
F0.1741086775195555
sg35
F-502930844467.77124
sg36
(lp1489
I0
aI0
aI0
aI0
aI0
aI2
aI0
aI0
aI0
aI0
asg11
F3.6528747649198603e+30
sg38
F504581813753.6677
sg39
F507521186692.56995
sg40
F192843394.4248955
sg41
F-2727669287.298584
sg42
F495674038725.26294
sg43
F109018357516.61716
sg44
F4.3548372501320916e+27
sg45
F6371000.0
sg46
F0.25373134328358216
sg47
F6.499678014661842
sg48
F68050572701.6902
sbsg49
F0.3283283283283283
sg50
F1.0
sg42
F0.05913334292141101
sbag1
(g2
g3
Ntp1490
Rp1491
(dp1492
g7
F30309.355599097078
sg8
F4.22738796e+17
sg9
I0
sg10
F0.07306279469627895
sg11
F3.026458918492294e+30
sg12
F2.0519743565201946e+27
sg13
F726492.6601181944
sg14
g506
sg25
g1
(g26
g3
Ntp1493
Rp1494
(dp1495
g30
F469618288967.5682
sg31
(lp1496
F0.8981338219719393
aF5.463070304688437
aF4.326164423928937
aF0.20500847624268081
aF6.157434185679101
aF2.28870797203344
aF0.006592931581089986
aF6.268194986553899
aF3.4044686260596015
aF4.778197241141396
asg33
F581889975228.6884
sg34
F0.18038199917665462
sg35
F-137190300545.19226
sg36
(lp1497
I0
aI0
aI2
aI0
aI2
aI0
aI0
aI1
aI2
aI1
asg11
F3.026458918492294e+30
sg38
F346363080493.26685
sg39
F544515996461.45996
sg40
F142276861.20117044
sg41
F396184101160.95355
sg42
F-499927879523.6776
sg43
F-215800337528.41055
sg44
F2.0519743565201946e+27
sg45
F6371000.0
sg46
F0.25373134328358216
sg47
F9.832278613816863
sg48
F-347440138478.5928
sbsg49
F0.0
sg50
F1.0
sg42
F0.23005600903742823
sbag1
(g2
g3
Ntp1498
Rp1499
(dp1500
g7
F884.5267452184567
sg8
F1.88505224e+17
sg9
I0
sg10
F0.07175001466716009
sg11
F2.0971755369222138e+30
sg12
F4.731206775225584e+26
sg13
F674656.1986478927
sg14
g462
sg25
g1
(g26
g3
Ntp1501
Rp1502
(dp1503
g30
F199565322024.96088
sg31
(lp1504
F4.824769984088498
aF1.640321520212705
aF5.947176119325318
aF1.8752232245055827
aF1.5789674470452548
aF1.546294041611191
aF2.029222878809019
aF2.759486975341666
aF3.1104551292049267
aF5.633973982716072
asg33
F279409311554.2277
sg34
F0.00598898136701971
sg35
F-42791892676.82727
sg36
(lp1505
I1
aI0
aI0
aI2
aI1
aI0
aI0
aI1
aI0
aI1
asg11
F2.0971755369222138e+30
sg38
F166315066401.32602
sg39
F200571877841.92938
sg40
F47347209.55249618
sg41
F-108864715681.3977
sg42
F-169263142331.43936
sg43
F-107606072454.69353
sg44
F4.731206775225584e+26
sg45
F6371000.0
sg46
F0.2537313432835821
sg47
F9.991057794873734
sg48
F162930677841.1641
sbsg49
F0.8038038038038038
sg50
F1.0
sg42
F0.21364112957183268
sbag1
(g2
g3
Ntp1506
Rp1507
(dp1508
g7
F46949025828287.85
sg8
F7.45951006e+17
sg9
I0
sg10
F0.05347593072399391
sg11
F3.344527591517288e+30
sg12
F3.06035585764777e+27
sg13
F1049710.2277504834
sg14
g15
(g19
S'^\xc7L\x91\xa5\xf0\xfb>'
p1509
tp1510
Rp1511
sg25
g1
(g26
g3
Ntp1512
Rp1513
(dp1514
g30
F508587355617.64154
sg31
(lp1515
F0.7262340298440486
aF0.6619244706938671
aF3.993201012502879
aF0.8783923047679261
aF2.283106118061467
aF4.262029073731251
aF0.39327322291495553
aF4.986003484238643
aF3.9243863460839155
aF5.486812184199295
asg33
F710625643420.2456
sg34
F0.030906798578395955
sg35
F-292949323726.0531
sg36
(lp1516
I1
aI2
aI2
aI1
aI1
aI0
aI0
aI0
aI0
aI1
asg11
F3.344527591517288e+30
sg38
F422991454416.8129
sg39
F516041808819.78143
sg40
F152533456.13746455
sg41
F225672731218.50482
sg42
F-256910180541.40933
sg43
F447544754839.3035
sg44
F3.06035585764777e+27
sg45
F6371000.0
sg46
F0.253731343283582
sg47
F8.375096820306162
sg48
F-359932855631.1865
sbsg49
F0.0
sg50
F1.0
sg42
F0.3324082387876531
sbag1
(g2
g3
Ntp1517
Rp1518
(dp1519
g7
F21674.28581532183
sg8
F4.40227158e+17
sg9
I0
sg10
F0.07340791668481336
sg11
F3.3092896659707426e+30
sg12
F2.9334043326645627e+27
sg13
F632755.5393410753
sg14
g15
(g19
S'\xbc\xa7\xa7\x0f\xef\x91\xe3?'
p1520
tp1521
Rp1522
sg25
g1
(g26
g3
Ntp1523
Rp1524
(dp1525
g30
F497008356650.2028
sg31
(lp1526
F4.990643431145591
aF0.7154106030812797
aF5.137616580397776
aF0.1433253338224284
aF1.7306019192688686
aF3.3972835355848945
aF2.6537430299478273
aF2.7230725559456586
aF3.455211024368929
aF3.9923068212767228
asg33
F695730231707.5466
sg34
F0.03888032811513732
sg35
F229772685902.02972
sg36
(lp1527
I2
aI2
aI0
aI0
aI1
aI2
aI2
aI2
aI1
aI0
asg11
F3.3092896659707426e+30
sg38
F414125137921.15875
sg39
F500214206341.54913
sg40
F148136578.3825266
sg41
F423432461360.9306
sg42
F-101778133909.65968
sg43
F489750409579.9954
sg44
F2.9334043326645627e+27
sg45
F6371000.0
sg46
F0.25373134328358204
sg47
F8.058881476978339
sg48
F-134624350342.33984
sbsg49
F0.0
sg50
F1.0
sg42
F0.2003725874580072
sbag1
(g2
g3
Ntp1528
Rp1529
(dp1530
g7
F362118.91337583825
sg8
F4.52956908e+17
sg9
I0
sg10
F0.06139540577499054
sg11
F2.8440339941734517e+30
sg12
F1.600191389236036e+27
sg13
F881487.2037409977
sg14
g15
(g19
S'\xa8m5V\x06\xd4\xbf?'
p1531
tp1532
Rp1533
sg25
g1
(g26
g3
Ntp1534
Rp1535
(dp1536
g30
F368891291299.9854
sg31
(lp1537
F3.9536303700628403
aF2.437684915942218
aF0.04728813227649598
aF1.4806843352616919
aF3.04601656180105
aF3.205098857700201
aF4.415089217324408
aF4.658132765320366
aF3.8290725718035987
aF5.753023825561378
asg33
F513855341379.50995
sg34
F0.05772019196078068
sg35
F-324091925468.8127
sg36
(lp1538
I0
aI0
aI1
aI2
aI2
aI1
aI2
aI0
aI1
aI0
asg11
F2.8440339941734517e+30
sg38
F305866274630.6607
sg39
F358442644291.1237
sg40
F102179641.9870168
sg41
F-147514198481.01505
sg42
F159729912274.54855
sg43
F-320885469242.8095
sg44
F1.600191389236036e+27
sg45
F6371000.0
sg46
F0.25373134328358204
sg47
F11.457443179563274
sg48
F-41050144199.92166
sbsg49
F0.0
sg50
F1.0
sg42
F0.27913761451798264
sbag1
(g2
g3
Ntp1539
Rp1540
(dp1541
g7
F153757.96393005687
sg8
F6.87918776e+17
sg9
I0
sg10
F0.07338951781380036
sg11
F5.225785340513317e+30
sg12
F1.6879980053730414e+28
sg13
F412188.8958669453
sg14
g15
(g19
S'\xdd\xd4\x01H\xce\x8b\xeb?'
p1542
tp1543
Rp1544
sg25
g1
(g26
g3
Ntp1545
Rp1546
(dp1547
g30
F1307232295904.6826
sg31
(lp1548
F3.015144945323261
aF4.806925606859643
aF1.730891553799399
aF5.577729937484605
aF2.731348595285857
aF4.455974326705061
aF5.882324102929151
aF1.342467093068825
aF1.4665655030909965
aF4.213742275349476
asg33
F1668940582577.121
sg34
F0.1205638200529364
sg35
F958091496470.2599
sg36
(lp1549
I0
aI1
aI1
aI1
aI0
aI0
aI0
aI1
aI1
aI2
asg11
F5.225785340513317e+30
sg38
F993417013438.7626
sg39
F1464836996324.594
sg40
F502848934.69803107
sg41
F-1082490661913.2444
sg42
F-1464835399800.7566
sg43
F-2162704745.475527
sg44
F1.6879980053730414e+28
sg45
F6371000.0
sg46
F0.25373134328358204
sg47
F3.1430690673727684
sg48
F-236689833037.37943
sbsg49
F0.0
sg50
F1.0
sg42
F0.13052648369119935
sbag1
(g2
g3
Ntp1550
Rp1551
(dp1552
g7
F1963172763.4084418
sg8
F5.70530422e+17
sg9
I0
sg10
F0.06573849683434319
sg11
F2.951445601736576e+30
sg12
F1.8559741757759317e+27
sg13
F1030950.780374062
sg14
g251
sg25
g1
(g26
g3
Ntp1553
Rp1554
(dp1555
g30
F408668109578.91144
sg31
(lp1556
F1.8003025902191638
aF6.051088104195605
aF4.716105295478015
aF5.81774068878583
aF5.388443391556248
aF2.8106645987093697
aF1.6337903066752477
aF0.054313462911404
aF4.202309740899483
aF4.337424758812888
asg33
F553402192287.9707
sg34
F0.029864537852450454
sg35
F12428945393.779633
sg36
(lp1557
I2
aI1
aI2
aI2
aI1
aI2
aI2
aI1
aI1
aI2
asg11
F2.951445601736576e+30
sg38
F329406066838.07776
sg39
F417728383088.83215
sg40
F116956104.87365699
sg41
F-360106059308.53986
sg42
F-315583680235.65546
sg43
F-273685846924.7719
sg44
F1.8559741757759317e+27
sg45
F6371000.0
sg46
F0.25373134328358216
sg47
F10.139194270545211
sg48
F211343676043.74377
sbsg49
F0.0
sg50
F1.0
sg42
F0.326467747118453
sbag1
(g2
g3
Ntp1558
Rp1559
(dp1560
g7
F196013.11248996164
sg8
F6.27744862e+17
sg9
I0
sg10
F0.05979681369386028
sg11
F3.66298198811057e+30
sg12
F4.4032356569405596e+27
sg13
F736448.3466600144
sg14
g15
(g19
S"'\x10\x8a@\x911\xd9?"
p1561
tp1562
Rp1563
sg25
g1
(g26
g3
Ntp1564
Rp1565
(dp1566
g30
F805635129345.0437
sg31
(lp1567
F4.972185461720773
aF0.8025496619902633
aF0.42107797660969415
aF5.000028967265489
aF5.13251468293292
aF3.9836591921343074
aF3.560217670072457
aF4.5907328839819685
aF4.056725342739562
aF0.5429581498226685
asg33
F852394964082.6638
sg34
F0.05338586954664914
sg35
F485476875358.70917
sg36
(lp1568
I1
aI2
aI0
aI0
aI2
aI0
aI2
aI1
aI2
aI0
asg11
F3.66298198811057e+30
sg38
F507377954811.1094
sg39
F792311324219.1213
sg40
F290585785.01430935
sg41
F371509100163.1148
sg42
F206565968848.38046
sg43
F-764910279052.117
sg44
F4.4032356569405596e+27
sg45
F6371000.0
sg46
F0.2537313432835821
sg47
F4.976149790517023
sg48
F-504034152090.7039
sbsg49
F0.0
sg50
F1.0
sg42
F0.23320864310900455
sbag1
(g2
g3
Ntp1569
Rp1570
(dp1571
g7
F45682.91676841671
sg8
F4.64060336e+17
sg9
I0
sg10
F0.05220238339273859
sg11
F4.205966913562464e+30
sg12
F7.895359855356682e+27
sg13
F406568.3571683177
sg14
g15
(g19
S'M\xb9\xdf\x1a\t\xa5\xeb?'
p1572
tp1573
Rp1574
sg25
g1
(g26
g3
Ntp1575
Rp1576
(dp1577
g30
F876643822355.9851
sg31
(lp1578
F5.262250506178697
aF2.2802407424629285
aF4.176725607236416
aF2.2217223121365417
aF0.31496840761375916
aF2.1912588691407833
aF5.435574679458774
aF3.4169955412686255
aF1.7731112975866876
aF2.3684520034846854
asg33
F1141407903045.1472
sg34
F0.13549460825417675
sg35
F-719446065751.9489
sg36
(lp1579
I2
aI0
aI1
aI1
aI2
aI2
aI2
aI1
aI0
aI2
asg11
F4.205966913562464e+30
sg38
F679409466098.3019
sg39
F836203000313.9734
sg40
F307812323.67258567
sg41
F374066493723.6298
sg42
F179687616433.1494
sg43
F-816668732249.9033
sg44
F7.895359855356682e+27
sg45
F6371000.0
sg46
F0.2537313432835821
sg47
F4.9289632229197355
sg48
F-204223099774.34766
sbsg49
F0.0
sg50
F1.0
sg42
F0.12874664643663394
sbag1
(g2
g3
Ntp1580
Rp1581
(dp1582
g7
F108855.26507498015
sg8
F2.8581914799999997e+17
sg9
I0
sg10
F0.06437359745456109
sg11
F2.217863344008188e+30
sg12
F5.917958687812189e+26
sg13
F914640.5361143617
sg14
g15
(g19
S'\xf8\x12\x18bP\xc1\xb5?'
p1583
tp1584
Rp1585
sg25
g1
(g26
g3
Ntp1586
Rp1587
(dp1588
g30
F265296575362.87277
sg31
(lp1589
F2.5967539707147798
aF3.7423256843973673
aF0.13539882866289576
aF2.652350199768321
aF0.6553158719792134
aF2.859426384678387
aF2.1787656676629705
aF5.030705384491524
aF4.341408380494962
aF3.433918092476357
asg33
F312493418686.9044
sg34
F0.004582406639340694
sg35
F147607520348.73587
sg36
(lp1590
I0
aI0
aI2
aI1
aI0
aI1
aI0
aI1
aI0
aI0
asg11
F2.217863344008188e+30
sg38
F186007987313.63358
sg39
F266482848848.8117
sg40
F70569044.71869911
sg41
F221862059306.32672
sg42
F-260091344303.89966
sg43
F-58013803088.3078
sg44
F5.917958687812189e+26
sg45
F6371000.0
sg46
F0.2537313432835821
sg47
F15.927422469237769
sg48
F-1534701088.843071
sbsg49
F0.008008008008008008
sg50
F1.0
sg42
F0.28963616976954787
sbag1
(g2
g3
Ntp1591
Rp1592
(dp1593
g7
F190084.8282773081
sg8
F6.54228914e+17
sg9
I0
sg10
F0.07343597202558332
sg11
F3.748303799284171e+30
sg12
F4.828051890315538e+27
sg13
F732974.488068732
sg14
g1563
sg25
g1
(g26
g3
Ntp1594
Rp1595
(dp1596
g30
F741821521829.541
sg31
(lp1597
F4.297569879425358
aF3.9677270013681647
aF4.60900676681078
aF2.3768587089155044
aF5.832634981288892
aF6.2401984236489785
aF1.1908136714124655
aF6.081602621599397
aF0.34051435188367446
aF0.05498124007885122
asg33
F892567101105.7783
sg34
F0.16082225163931418
sg35
F-96800032404.7392
sg36
(lp1598
I2
aI2
aI0
aI1
aI1
aI0
aI0
aI1
aI2
aI1
asg11
F3.748303799284171e+30
sg38
F531289941134.3919
sg39
F635215333070.1498
sg40
F253814200.328838
sg41
F-346420787243.37366
sg42
F543580673057.4823
sg43
F-328661788539.2154
sg44
F4.828051890315538e+27
sg45
F6371000.0
sg46
F0.25373134328358204
sg47
F5.739372920077225
sg48
F-523565574937.41327
sbsg49
F0.0
sg50
F1.0
sg42
F0.2321085878884318
sbag1
(g2
g3
Ntp1599
Rp1600
(dp1601
g7
F36891546043.16482
sg8
F6.8623382e+17
sg9
I0
sg10
F0.06508987272840376
sg11
F3.2220686038743185e+30
sg12
F2.636160990405889e+27
sg13
F1040474.0246170511
sg14
g572
sg25
g1
(g26
g3
Ntp1602
Rp1603
(dp1604
g30
F598157818568.0596
sg31
(lp1605
F0.9461799471315061
aF1.2956107524430593
aF0.13238628247086012
aF0.5605468266361053
aF4.25709171156188
aF3.6374597557618285
aF3.654610111586968
aF5.854713320849077
aF6.277060972563416
aF3.8352355685589767
asg33
F659539598071.725
sg34
F0.0013413307041976266
sg35
F301750452859.64325
sg36
(lp1606
I2
aI0
aI1
aI0
aI1
aI0
aI0
aI1
aI1
aI0
asg11
F3.2220686038743185e+30
sg38
F392583094090.3125
sg39
F597361583354.4272
sg40
F198216794.4421365
sg41
F86675772754.60043
sg42
F592813557986.1653
sg43
F-73572730923.16037
sg44
F2.636160990405889e+27
sg45
F6371000.0
sg46
F0.25373134328358204
sg47
F6.159708975043337
sg48
F-508207473266.67816
sbsg49
F0.0
sg50
F1.0
sg42
F0.32948344112873285
sbag1
(g2
g3
Ntp1607
Rp1608
(dp1609
g7
F15936.8518227273
sg8
F3.66203276e+17
sg9
I0
sg10
F0.04724810573639267
sg11
F3.434272744106297e+30
sg12
F3.402294703719091e+27
sg13
F488743.89982333046
sg14
g199
sg25
g1
(g26
g3
Ntp1610
Rp1611
(dp1612
g30
F572941611640.3511
sg31
(lp1613
F4.194541540280182
aF3.5897797212563316
aF4.77675459324765
aF5.916911935601614
aF2.8437204732547565
aF5.9575061121433865
aF1.8018632692716443
aF2.6540086825197107
aF0.7850947035095994
aF0.4637753101288409
asg33
F749274366661.9143
sg34
F0.10784416847212597
sg35
F392930505231.8548
sg36
(lp1614
I0
aI0
aI0
aI0
aI1
aI1
aI2
aI0
aI1
aI1
asg11
F3.434272744106297e+30
sg38
F445996646822.56805
sg39
F576195411320.8492
sg40
F179983345.76740965
sg41
F43036898494.999176
sg42
F-91959720223.8111
sg43
F568809776536.551
sg44
F3.402294703719091e+27
sg45
F6371000.0
sg46
F0.25373134328358204
sg47
F8.01426520318219
sg48
F-419230957174.41144
sbsg49
F0.002002002002002002
sg50
F1.0
sg42
F0.15476890161072132
sbag1
(g2
g3
Ntp1615
Rp1616
(dp1617
g7
F22263033.85997617
sg8
F9.13289356e+17
sg9
I0
sg10
F0.05908889062895382
sg11
F3.9195371320343415e+30
sg12
F5.77260616841725e+27
sg13
F935766.5588413953
sg14
g133
sg25
g1
(g26
g3
Ntp1618
Rp1619
(dp1620
g30
F814813464600.5496
sg31
(lp1621
F2.1317479710315403
aF0.3429513749538992
aF1.3772545990422336
aF4.116177977784374
aF6.20706076075897
aF1.5920133627702142
aF0.7113730063504576
aF0.35732362321619277
aF1.4629509967976155
aF3.2095140790692986
asg33
F975979903717.4132
sg34
F0.025159849592659544
sg35
F-535675483124.7044
sg36
(lp1622
I1
aI1
aI1
aI0
aI1
aI1
aI2
aI1
aI2
aI0
asg11
F3.9195371320343415e+30
sg38
F580940418879.4126
sg39
F798916132768.0146
sg40
F285728833.5546519
sg41
F60965428443.26004
sg42
F611352629929.9019
sg43
F-514310168161.96875
sg44
F5.77260616841725e+27
sg45
F6371000.0
sg46
F0.25373134328358216
sg47
F5.583783697159949
sg48
F-589577798522.6755
sbsg49
F0.0
sg50
F1.0
sg42
F0.29632607696644186
sbag1
(g2
g3
Ntp1623
Rp1624
(dp1625
g7
F22633.99825782382
sg8
F3.61867446e+17
sg9
I0
sg10
F0.06181413460398364
sg11
F2.7620706505039695e+30
sg12
F1.4235473889678534e+27
sg13
F746635.5080370157
sg14
g15
(g19
S'd\xa9\xac\x85\xa0\xe6\xd7?'
p1626
tp1627
Rp1628
sg25
g1
(g26
g3
Ntp1629
Rp1630
(dp1631
g30
F351411388920.501
sg31
(lp1632
F6.078270749912314
aF4.546324627501075
aF3.235528098167381
aF5.656854186888214
aF1.5932894856595177
aF0.5912253566027472
aF5.632409344574367
aF0.7850969906058831
aF6.013358127157393
aF0.9602671918845788
asg33
F484664126075.90564
sg34
F0.07934619681299192
sg35
F38715633685.705536
sg36
(lp1633
I1
aI1
aI2
aI1
aI1
aI2
aI2
aI2
aI0
aI1
asg11
F2.7620706505039695e+30
sg38
F288490551235.65814
sg39
F334447038955.91345
sg40
F96402993.86827886
sg41
F327476775547.6668
sg42
F185918520054.66644
sg43
F-278009218852.65045
sg44
F1.4235473889678534e+27
sg45
F6371000.0
sg46
F0.25373134328358204
sg47
F11.585017451783257
sg48
F-55811137343.68476
sbsg49
F0.006006006006006006
sg50
F1.0
sg42
F0.23643457754505498
sbag1
(g2
g3
Ntp1634
Rp1635
(dp1636
g7
F678959.9448564128
sg8
F8.7322999e+17
sg9
I0
sg10
F0.04067615115817089
sg11
F4.555063371492821e+30
sg12
F1.0436909775249037e+28
sg13
F665407.6160225219
sg14
g336
sg25
g1
(g26
g3
Ntp1637
Rp1638
(dp1639
g30
F1072573841125.4844
sg31
(lp1640
F0.08451649046384457
aF1.3546163908450748
aF2.347818394491584
aF3.7390552436463578
aF1.3097766292343
aF1.5305023594903966
aF2.582342536357832
aF3.075814997478044
aF6.256220483855435
aF2.61539913535386
asg33
F1312323407447.2092
sg34
F0.21262389818923264
sg35
F-831861794597.0594
sg36
(lp1641
I1
aI1
aI1
aI0
aI2
aI1
aI2
aI2
aI0
aI0
asg11
F4.555063371492821e+30
sg38
F781144885385.2435
sg39
F998598462047.0837
sg40
F400292777.1611509
sg41
F-318501125673.2135
sg42
F119861746895.25967
sg43
F-991378863015.5565
sg44
F1.0436909775249037e+28
sg45
F6371000.0
sg46
F0.25373134328358216
sg47
F4.832709054461086
sg48
F451399906997.61597
sbsg49
F0.0
sg50
F1.0
sg42
F0.21071241174046526
sbag1
(g2
g3
Ntp1642
Rp1643
(dp1644
g7
F6693248.252007577
sg8
F8.08488796e+17
sg9
I0
sg10
F0.05347593072399391
sg11
F3.7560795630694157e+30
sg12
F4.868239424710722e+27
sg13
F902055.233651844
sg14
g15
(g19
S'\xa7\xd3\x9d}(\xb2\xb8?'
p1645
tp1646
Rp1647
sg25
g1
(g26
g3
Ntp1648
Rp1649
(dp1650
g30
F822959670887.8708
sg31
(lp1651
F5.209759598070981
aF0.00014879032697495153
aF1.8099110291907965
aF0.3176983087031942
aF3.6797025635964755
aF3.1004850917740434
aF0.6313392987489078
aF1.1006898931799722
aF0.623364553057079
aF0.8915872313581539
asg33
F896274159096.607
sg34
F0.0714671201239876
sg35
F-530091787362.5236
sg36
(lp1652
I1
aI2
aI0
aI0
aI1
aI2
aI2
aI1
aI1
aI1
asg11
F3.7560795630694157e+30
sg38
F533496523271.79
sg39
F809776557172.49
sg40
F296267902.26991254
sg41
F-455006727945.50464
sg42
F125649482485.40904
sg43
F-799968924457.244
sg44
F4.868239424710722e+27
sg45
F6371000.0
sg46
F0.25373134328358204
sg47
F4.868184083189282
sg48
F409523683126.2159
sbsg49
F0.0
sg50
F1.0
sg42
F0.2856508239897506
sbag1
(g2
g3
Ntp1653
Rp1654
(dp1655
g7
F591084.6419632396
sg8
F8.6929534e+17
sg9
I0
sg10
F0.06043837074170098
sg11
F4.390302281891237e+30
sg12
F9.174278698576267e+27
sg13
F706523.2796930327
sg14
g716
sg25
g1
(g26
g3
Ntp1656
Rp1657
(dp1658
g30
F1068835358073.6128
sg31
(lp1659
F0.37968763093178626
aF1.642419281278223
aF5.716508140308938
aF1.0232602607882446
aF5.698826550061082
aF1.9383462480885865
aF1.6379895123830122
aF1.290792406092598
aF5.73440059882168
aF5.592792333634112
asg33
F1230384567622.015
sg34
F0.008253114079414868
sg35
F214187355102.20776
sg36
(lp1660
I1
aI2
aI0
aI1
aI1
aI1
aI1
aI2
aI1
aI1
asg11
F4.390302281891237e+30
sg38
F732371766441.6755
sg39
F1076573195326.0496
sg40
F405604879.4729416
sg41
F-1048781923564.1698
sg42
F-946386989617.915
sg43
F-513187598034.55963
sg44
F9.174278698576267e+27
sg45
F6371000.0
sg46
F0.2537313432835821
sg47
F3.6384738590017456
sg48
F114848154595.10376
sbsg49
F0.0
sg50
F1.0
sg42
F0.22373237190279371
sbag1
(g2
g3
Ntp1661
Rp1662
(dp1663
g7
F909097.7433431246
sg8
F5.02934678e+17
sg9
I0
sg10
F0.06469568462148981
sg11
F2.9494075193527336e+30
sg12
F1.8508530080247254e+27
sg13
F910061.4257522555
sg14
g1411
sg25
g1
(g26
g3
Ntp1664
Rp1665
(dp1666
g30
F413941464606.96344
sg31
(lp1667
F4.092930672547417
aF5.085290250627553
aF2.695240938824943
aF2.0007951535193316
aF3.0440081475643805
aF6.083634771327545
aF3.583192781650861
aF4.0200898972949854
aF2.0979493630284987
aF2.771821218170576
asg33
F552638166796.5708
sg34
F0.1221684068640532
sg35
F-295565401679.77386
sg36
(lp1668
I2
aI0
aI0
aI2
aI2
aI2
aI2
aI0
aI1
aI1
asg11
F2.9494075193527336e+30
sg38
F328951289759.8636
sg39
F450181755255.5937
sg40
F119268338.89522816
sg41
F-140765947938.89545
sg42
F-347212651936.01855
sg43
F286543167953.0407
sg44
F1.8508530080247254e+27
sg45
F6371000.0
sg46
F0.2537313432835821
sg47
F8.73481902570933
sg48
F309014002912.07715
sbsg49
F0.0
sg50
F1.0
sg42
F0.28818611815488093
sbag1
(g2
g3
Ntp1669
Rp1670
(dp1671
g7
F24952.223816689366
sg8
F2.37733096e+17
sg9
I0
sg10
F0.04486140013184196
sg11
F4.018781768604008e+30
sg12
F6.73243127963097e+27
sg13
F225553.08470537767
sg14
g632
sg25
g1
(g26
g3
Ntp1672
Rp1673
(dp1674
g30
F829700842397.3372
sg31
(lp1675
F3.0328560346849924
aF5.586803130089805
aF6.130363071652764
aF3.269156389330019
aF6.142169311727718
aF5.62783409340432
aF3.322911147638633
aF2.2289778926296284
aF3.708681151396454
aF0.6978831952203703
asg33
F1054000641625.1505
sg34
F0.03286275102716378
sg35
F613955381545.6926
sg36
(lp1676
I0
aI1
aI2
aI0
aI0
aI1
aI2
aI1
aI2
aI1
asg11
F4.018781768604008e+30
sg38
F627381334300.6849
sg39
F807629097613.1285
sg40
F289947420.3230069
sg41
F-507794191315.5133
sg42
F644367865272.7576
sg43
F-486882751301.8156
sg44
F6.73243127963097e+27
sg45
F6371000.0
sg46
F0.253731343283582
sg47
F5.636111409806606
sg48
F132168861872.61789
sbsg49
F0.09509509509509509
sg50
F1.0
sg42
F0.07142514349003626
sbag1
(g2
g3
Ntp1677
Rp1678
(dp1679
g7
F868768.3982430627
sg8
F7.11551364e+17
sg9
I0
sg10
F0.06063269320918112
sg11
F3.681584586791048e+30
sg12
F4.493367389545768e+27
sg13
F826352.5664621987
sg14
g757
sg25
g1
(g26
g3
Ntp1680
Rp1681
(dp1682
g30
F614016857361.1042
sg31
(lp1683
F1.8060018968200031
aF3.186826686827969
aF3.205448466325006
aF2.1412974063308856
aF2.761632506546197
aF5.388751647481494
aF5.088854199187077
aF0.3252615865803951
aF0.24389202401276142
aF3.3881910563674777
asg33
F861074791654.9851
sg34
F0.06895327458674494
sg35
F-106175075528.05365
sg36
(lp1684
I2
aI1
aI2
aI0
aI1
aI1
aI0
aI1
aI2
aI1
asg11
F3.681584586791048e+30
sg38
F512544518842.25305
sg39
F584650088581.8492
sg40
F192857802.77156058
sg41
F543249617687.7006
sg42
F383555278349.2571
sg43
F441249447058.22363
sg44
F4.493367389545768e+27
sg45
F6371000.0
sg46
F0.25373134328358204
sg47
F7.138418603647445
sg48
F188208480939.47134
sbsg49
F0.0
sg50
F1.0
sg42
F0.2616783127130296
sbag1
(g2
g3
Ntp1685
Rp1686
(dp1687
g7
F568184.432540348
sg8
F8.14892246e+17
sg9
I0
sg10
F0.07349111288108172
sg11
F4.05703457713938e+30
sg12
F6.959402087807879e+27
sg13
F760430.1191642222
sg14
g15
(g19
S'\xabIW\xc3\x91\xc8\xd5?'
p1688
tp1689
Rp1690
sg25
g1
(g26
g3
Ntp1691
Rp1692
(dp1693
g30
F804468601155.3683
sg31
(lp1694
F2.95174638242188
aF0.20355829751147422
aF5.893993243615785
aF1.8665459566524198
aF3.27546322030356
aF0.8358523595259743
aF5.796495683922579
aF2.832069954429251
aF1.135565331050971
aF0.5492527515949545
asg33
F1071620160042.63
sg34
F0.14275999743065565
sg35
F627063476050.9158
sg36
(lp1695
I1
aI0
aI1
aI2
aI1
aI0
aI1
aI0
aI0
aI0
asg11
F4.05703457713938e+30
sg38
F637869142882.518
sg39
F697779557878.432
sg40
F275513863.4429469
sg41
F-41805638257.01749
sg42
F632485566366.8588
sg43
F-294717355665.753
sg44
F6.959402087807879e+27
sg45
F6371000.0
sg46
F0.25373134328358204
sg47
F5.847132905249861
sg48
F-303216089622.3783
sbsg49
F0.0
sg50
F1.0
sg42
F0.24080287106867035
sbag1
(g2
g3
Ntp1696
Rp1697
(dp1698
g7
F19013.326294685656
sg8
F4.35200064e+17
sg9
I0
sg10
F0.0733460032245355
sg11
F3.445361394612933e+30
sg12
F3.4464495780966175e+27
sg13
F577096.0148690188
sg14
g15
(g19
S'\x919\x1a\xe9+f\xe6?'
p1699
tp1700
Rp1701
sg25
g1
(g26
g3
Ntp1702
Rp1703
(dp1704
g30
F609457823781.0084
sg31
(lp1705
F0.518995480384332
aF0.20529278743932866
aF3.634952070784235
aF5.189401486919779
aF5.545494992746815
aF0.7045259859643207
aF4.479418767755755
aF3.4672073004294397
aF3.9259954121332274
aF3.0973299671866275
asg33
F754120723046.018
sg34
F0.08420463567261528
sg35
F-186331956430.61633
sg36
(lp1706
I1
aI2
aI0
aI2
aI2
aI0
aI0
aI2
aI0
aI2
asg11
F3.445361394612933e+30
sg38
F448881382765.4869
sg39
F578073604332.529
sg40
F197143406.9664439
sg41
F240909653339.25336
sg42
F321394503780.363
sg43
F480494188274.71326
sg44
F3.4464495780966175e+27
sg45
F6371000.0
sg46
F0.25373134328358204
sg47
F7.264446057310009
sg48
F-491336985140.24054
sbsg49
F0.0
sg50
F1.0
sg42
F0.18274707137518928
sbag1
(g2
g3
Ntp1707
Rp1708
(dp1709
g7
F261198.2354128259
sg8
F4.23204782e+17
sg9
I0
sg10
F0.06489394879810263
sg11
F2.749380088619307e+30
sg12
F1.3975647209106596e+27
sg13
F881271.4303679669
sg14
g1533
sg25
g1
(g26
g3
Ntp1710
Rp1711
(dp1712
g30
F358123587328.7976
sg31
(lp1713
F0.4328792745370708
aF3.5622014746313715
aF4.697312927032453
aF4.503113522888639
aF1.67037857405145
aF6.281066648908903
aF1.2872165361752388
aF5.2840747861082935
aF1.863333813296203
aF4.089691319707415
asg33
F480220698659.54315
sg34
F0.02480632510100129
sg35
F-237164454490.43524
sg36
(lp1714
I2
aI0
aI0
aI1
aI0
aI0
aI1
aI2
aI2
aI2
asg11
F2.749380088619307e+30
sg38
F285845653964.0138
sg39
F358808862921.5903
sg40
F99406815.64373961
sg41
F-229948760193.77252
sg42
F-36508764877.88002
sg43
F-356946648952.15955
sg44
F1.3975647209106596e+27
sg45
F6371000.0
sg46
F0.2537313432835821
sg47
F10.893647997285573
sg48
F-140072800081.54938
sbsg49
F0.0
sg50
F1.0
sg42
F0.2790692862831895
sbag1
(g2
g3
Ntp1715
Rp1716
(dp1717
g7
F891227.9077542967
sg8
F3.21459362e+17
sg9
I0
sg10
F0.06784307061867477
sg11
F2.2884149859177953e+30
sg12
F6.707673719298493e+26
sg13
F966240.4247442421
sg14
g973
sg25
g1
(g26
g3
Ntp1718
Rp1719
(dp1720
g30
F293069006611.8605
sg31
(lp1721
F4.456540769945459
aF0.4152586297347231
aF1.7723502766213195
aF3.114003938566521
aF4.736672212245805
aF0.6648412578151287
aF6.227566187213691
aF1.6102584992252904
aF5.836585971064068
aF0.94497938284415
asg33
F332690864269.1991
sg34
F0.0729305118007165
sg35
F186355585306.73746
sg36
(lp1722
I2
aI2
aI0
aI1
aI0
aI2
aI2
aI0
aI2
aI2
asg11
F2.2884149859177953e+30
sg38
F198030276350.71378
sg39
F271696341565.7484
sg40
F80662487.5543017
sg41
F-57482747350.49629
sg42
F271681518089.21002
sg43
F2838088961.622495
sg44
F6.707673719298493e+26
sg45
F6371000.0
sg46
F0.25373134328358204
sg47
F12.576816616542384
sg48
F-189172491663.65106
sbsg49
F0.001001001001001001
sg50
F1.0
sg42
F0.30597613450234334
sbag1
(g2
g3
Ntp1723
Rp1724
(dp1725
g7
F1168304.661306488
sg8
F7.45410956e+17
sg9
I0
sg10
F0.043815508531902136
sg11
F3.8030740626384167e+30
sg12
F5.11648763733978e+27
sg13
F811250.3486253775
sg14
g528
sg25
g1
(g26
g3
Ntp1726
Rp1727
(dp1728
g30
F670579406602.3369
sg31
(lp1729
F0.5810859724960896
aF5.3286095947241385
aF4.149885894900663
aF2.915996271167903
aF3.4246415037386986
aF5.0707799157881706
aF0.8008839159359097
aF5.460866279460769
aF4.167342200232646
aF2.3405805150799757
asg33
F918842077865.4343
sg34
F0.07952552520478672
sg35
F-121501739568.70721
sg36
(lp1730
I2
aI0
aI2
aI0
aI0
aI0
aI0
aI0
aI0
aI2
asg11
F3.8030740626384167e+30
sg38
F546929808253.2348
sg39
F627229613066.3618
sg40
F216566905.50998282
sg41
F-605900914096.8302
sg42
F491777224384.10266
sg43
F-389322679899.9076
sg44
F5.11648763733978e+27
sg45
F6371000.0
sg46
F0.253731343283582
sg47
F5.613547556604925
sg48
F-107416931094.59894
sbsg49
F0.0
sg50
F1.0
sg42
F0.25689594373136954
sba.